     926:	0f b6 95 e0 fe ff ff 	movzbl -0x120(%rbp),%edx
     92d:	0f b6 85 e1 fe ff ff 	movzbl -0x11f(%rbp),%eax
     934:	38 c2                	cmp    %al,%dl
     936:	0f 83 8c b0 01 00    	jae    1b9c8 <main+0x1b16e>
     93c:	0f b6 95 e0 fe ff ff 	movzbl -0x120(%rbp),%edx
     943:	0f b6 85 e2 fe ff ff 	movzbl -0x11e(%rbp),%eax
     94a:	38 c2                	cmp    %al,%dl
     94c:	0f 86 7c b0 01 00    	jbe    1b9ce <main+0x1b174>
     952:	0f b6 95 e0 fe ff ff 	movzbl -0x120(%rbp),%edx
     959:	0f b6 85 e3 fe ff ff 	movzbl -0x11d(%rbp),%eax
     960:	38 c2                	cmp    %al,%dl
     962:	0f 83 6c b0 01 00    	jae    1b9d4 <main+0x1b17a>
     968:	0f b6 95 e0 fe ff ff 	movzbl -0x120(%rbp),%edx
     96f:	0f b6 85 e4 fe ff ff 	movzbl -0x11c(%rbp),%eax
     976:	38 c2                	cmp    %al,%dl
     978:	0f 83 5c b0 01 00    	jae    1b9da <main+0x1b180>
     97e:	0f b6 95 e0 fe ff ff 	movzbl -0x120(%rbp),%edx
     985:	0f b6 85 e5 fe ff ff 	movzbl -0x11b(%rbp),%eax
     98c:	38 c2                	cmp    %al,%dl
     98e:	0f 83 4c b0 01 00    	jae    1b9e0 <main+0x1b186>
     994:	0f b6 95 e0 fe ff ff 	movzbl -0x120(%rbp),%edx
     99b:	0f b6 85 e6 fe ff ff 	movzbl -0x11a(%rbp),%eax
     9a2:	38 c2                	cmp    %al,%dl
     9a4:	0f 83 3c b0 01 00    	jae    1b9e6 <main+0x1b18c>
     9aa:	0f b6 95 e0 fe ff ff 	movzbl -0x120(%rbp),%edx
     9b1:	0f b6 85 e7 fe ff ff 	movzbl -0x119(%rbp),%eax
     9b8:	38 c2                	cmp    %al,%dl
     9ba:	0f 86 2c b0 01 00    	jbe    1b9ec <main+0x1b192>
     9c0:	0f b6 95 e0 fe ff ff 	movzbl -0x120(%rbp),%edx
     9c7:	0f b6 85 e8 fe ff ff 	movzbl -0x118(%rbp),%eax
     9ce:	38 c2                	cmp    %al,%dl
     9d0:	0f 83 1c b0 01 00    	jae    1b9f2 <main+0x1b198>
     9d6:	0f b6 95 e0 fe ff ff 	movzbl -0x120(%rbp),%edx
     9dd:	0f b6 85 e9 fe ff ff 	movzbl -0x117(%rbp),%eax
     9e4:	38 c2                	cmp    %al,%dl
     9e6:	0f 83 0c b0 01 00    	jae    1b9f8 <main+0x1b19e>
     9ec:	0f b6 95 e0 fe ff ff 	movzbl -0x120(%rbp),%edx
     9f3:	0f b6 85 ea fe ff ff 	movzbl -0x116(%rbp),%eax
     9fa:	38 c2                	cmp    %al,%dl
     9fc:	0f 83 fc af 01 00    	jae    1b9fe <main+0x1b1a4>
     a02:	0f b6 95 e0 fe ff ff 	movzbl -0x120(%rbp),%edx
     a09:	0f b6 85 eb fe ff ff 	movzbl -0x115(%rbp),%eax
     a10:	38 c2                	cmp    %al,%dl
     a12:	0f 86 ec af 01 00    	jbe    1ba04 <main+0x1b1aa>
     a18:	0f b6 95 e0 fe ff ff 	movzbl -0x120(%rbp),%edx
     a1f:	0f b6 85 ec fe ff ff 	movzbl -0x114(%rbp),%eax
     a26:	38 c2                	cmp    %al,%dl
     a28:	0f 83 dc af 01 00    	jae    1ba0a <main+0x1b1b0>
     a2e:	0f b6 95 e0 fe ff ff 	movzbl -0x120(%rbp),%edx
     a35:	0f b6 85 ed fe ff ff 	movzbl -0x113(%rbp),%eax
     a3c:	38 c2                	cmp    %al,%dl
     a3e:	0f 86 cc af 01 00    	jbe    1ba10 <main+0x1b1b6>
     a44:	0f b6 95 e0 fe ff ff 	movzbl -0x120(%rbp),%edx
     a4b:	0f b6 85 ee fe ff ff 	movzbl -0x112(%rbp),%eax
     a52:	38 c2                	cmp    %al,%dl
     a54:	0f 83 bc af 01 00    	jae    1ba16 <main+0x1b1bc>
     a5a:	0f b6 95 e0 fe ff ff 	movzbl -0x120(%rbp),%edx
     a61:	0f b6 85 ef fe ff ff 	movzbl -0x111(%rbp),%eax
     a68:	38 c2                	cmp    %al,%dl
     a6a:	0f 83 ac af 01 00    	jae    1ba1c <main+0x1b1c2>
     a70:	0f b6 95 e0 fe ff ff 	movzbl -0x120(%rbp),%edx
     a77:	0f b6 85 f0 fe ff ff 	movzbl -0x110(%rbp),%eax
     a7e:	38 c2                	cmp    %al,%dl
     a80:	0f 83 9c af 01 00    	jae    1ba22 <main+0x1b1c8>
     a86:	0f b6 95 e0 fe ff ff 	movzbl -0x120(%rbp),%edx
     a8d:	0f b6 85 f1 fe ff ff 	movzbl -0x10f(%rbp),%eax
     a94:	38 c2                	cmp    %al,%dl
     a96:	0f 83 8c af 01 00    	jae    1ba28 <main+0x1b1ce>
     a9c:	0f b6 95 e0 fe ff ff 	movzbl -0x120(%rbp),%edx
     aa3:	0f b6 85 f3 fe ff ff 	movzbl -0x10d(%rbp),%eax
     aaa:	38 c2                	cmp    %al,%dl
     aac:	0f 83 7c af 01 00    	jae    1ba2e <main+0x1b1d4>
     ab2:	0f b6 95 e0 fe ff ff 	movzbl -0x120(%rbp),%edx
     ab9:	0f b6 85 f4 fe ff ff 	movzbl -0x10c(%rbp),%eax
     ac0:	38 c2                	cmp    %al,%dl
     ac2:	0f 83 6c af 01 00    	jae    1ba34 <main+0x1b1da>
     ac8:	0f b6 95 e0 fe ff ff 	movzbl -0x120(%rbp),%edx
     acf:	0f b6 85 f5 fe ff ff 	movzbl -0x10b(%rbp),%eax
     ad6:	38 c2                	cmp    %al,%dl
     ad8:	0f 83 5c af 01 00    	jae    1ba3a <main+0x1b1e0>
     ade:	0f b6 95 e0 fe ff ff 	movzbl -0x120(%rbp),%edx
     ae5:	0f b6 85 f6 fe ff ff 	movzbl -0x10a(%rbp),%eax
     aec:	38 c2                	cmp    %al,%dl
     aee:	0f 83 4c af 01 00    	jae    1ba40 <main+0x1b1e6>
     af4:	0f b6 95 e0 fe ff ff 	movzbl -0x120(%rbp),%edx
     afb:	0f b6 85 f7 fe ff ff 	movzbl -0x109(%rbp),%eax
     b02:	38 c2                	cmp    %al,%dl
     b04:	0f 83 3c af 01 00    	jae    1ba46 <main+0x1b1ec>
     b0a:	0f b6 95 e0 fe ff ff 	movzbl -0x120(%rbp),%edx
     b11:	0f b6 85 f8 fe ff ff 	movzbl -0x108(%rbp),%eax
     b18:	38 c2                	cmp    %al,%dl
     b1a:	0f 83 2c af 01 00    	jae    1ba4c <main+0x1b1f2>
     b20:	0f b6 95 e0 fe ff ff 	movzbl -0x120(%rbp),%edx
     b27:	0f b6 85 f9 fe ff ff 	movzbl -0x107(%rbp),%eax
     b2e:	38 c2                	cmp    %al,%dl
     b30:	0f 86 1c af 01 00    	jbe    1ba52 <main+0x1b1f8>
     b36:	0f b6 95 e0 fe ff ff 	movzbl -0x120(%rbp),%edx
     b3d:	0f b6 85 fa fe ff ff 	movzbl -0x106(%rbp),%eax
     b44:	38 c2                	cmp    %al,%dl
     b46:	0f 86 0c af 01 00    	jbe    1ba58 <main+0x1b1fe>
     b4c:	0f b6 95 e0 fe ff ff 	movzbl -0x120(%rbp),%edx
     b53:	0f b6 85 fb fe ff ff 	movzbl -0x105(%rbp),%eax
     b5a:	38 c2                	cmp    %al,%dl
     b5c:	0f 83 fc ae 01 00    	jae    1ba5e <main+0x1b204>
     b62:	0f b6 95 e0 fe ff ff 	movzbl -0x120(%rbp),%edx
     b69:	0f b6 85 fc fe ff ff 	movzbl -0x104(%rbp),%eax
     b70:	38 c2                	cmp    %al,%dl
     b72:	0f 83 ec ae 01 00    	jae    1ba64 <main+0x1b20a>
     b78:	0f b6 95 e0 fe ff ff 	movzbl -0x120(%rbp),%edx
     b7f:	0f b6 85 fd fe ff ff 	movzbl -0x103(%rbp),%eax
     b86:	38 c2                	cmp    %al,%dl
     b88:	0f 86 dc ae 01 00    	jbe    1ba6a <main+0x1b210>
     b8e:	0f b6 95 e0 fe ff ff 	movzbl -0x120(%rbp),%edx
     b95:	0f b6 85 fe fe ff ff 	movzbl -0x102(%rbp),%eax
     b9c:	38 c2                	cmp    %al,%dl
     b9e:	0f 83 cc ae 01 00    	jae    1ba70 <main+0x1b216>
     ba4:	0f b6 95 e0 fe ff ff 	movzbl -0x120(%rbp),%edx
     bab:	0f b6 85 ff fe ff ff 	movzbl -0x101(%rbp),%eax
     bb2:	38 c2                	cmp    %al,%dl
     bb4:	0f 83 bc ae 01 00    	jae    1ba76 <main+0x1b21c>
     bba:	0f b6 95 e0 fe ff ff 	movzbl -0x120(%rbp),%edx
     bc1:	0f b6 85 00 ff ff ff 	movzbl -0x100(%rbp),%eax
     bc8:	38 c2                	cmp    %al,%dl
     bca:	0f 83 ac ae 01 00    	jae    1ba7c <main+0x1b222>
     bd0:	0f b6 95 e0 fe ff ff 	movzbl -0x120(%rbp),%edx
     bd7:	0f b6 85 01 ff ff ff 	movzbl -0xff(%rbp),%eax
     bde:	38 c2                	cmp    %al,%dl
     be0:	0f 86 9c ae 01 00    	jbe    1ba82 <main+0x1b228>
     be6:	0f b6 95 e0 fe ff ff 	movzbl -0x120(%rbp),%edx
     bed:	0f b6 85 02 ff ff ff 	movzbl -0xfe(%rbp),%eax
     bf4:	38 c2                	cmp    %al,%dl
     bf6:	0f 83 8c ae 01 00    	jae    1ba88 <main+0x1b22e>
     bfc:	0f b6 95 e0 fe ff ff 	movzbl -0x120(%rbp),%edx
     c03:	0f b6 85 03 ff ff ff 	movzbl -0xfd(%rbp),%eax
     c0a:	38 c2                	cmp    %al,%dl
     c0c:	0f 86 7c ae 01 00    	jbe    1ba8e <main+0x1b234>
     c12:	0f b6 95 e0 fe ff ff 	movzbl -0x120(%rbp),%edx
     c19:	0f b6 85 04 ff ff ff 	movzbl -0xfc(%rbp),%eax
     c20:	38 c2                	cmp    %al,%dl
     c22:	0f 83 6c ae 01 00    	jae    1ba94 <main+0x1b23a>
     c28:	0f b6 95 e0 fe ff ff 	movzbl -0x120(%rbp),%edx
     c2f:	0f b6 85 05 ff ff ff 	movzbl -0xfb(%rbp),%eax
     c36:	38 c2                	cmp    %al,%dl
     c38:	0f 83 5c ae 01 00    	jae    1ba9a <main+0x1b240>
     c3e:	0f b6 95 e0 fe ff ff 	movzbl -0x120(%rbp),%edx
     c45:	0f b6 85 06 ff ff ff 	movzbl -0xfa(%rbp),%eax
     c4c:	38 c2                	cmp    %al,%dl
     c4e:	0f 86 4c ae 01 00    	jbe    1baa0 <main+0x1b246>
     c54:	0f b6 95 e0 fe ff ff 	movzbl -0x120(%rbp),%edx
     c5b:	0f b6 85 07 ff ff ff 	movzbl -0xf9(%rbp),%eax
     c62:	38 c2                	cmp    %al,%dl
     c64:	0f 83 3c ae 01 00    	jae    1baa6 <main+0x1b24c>
     c6a:	0f b6 95 e0 fe ff ff 	movzbl -0x120(%rbp),%edx
     c71:	0f b6 85 08 ff ff ff 	movzbl -0xf8(%rbp),%eax
     c78:	38 c2                	cmp    %al,%dl
     c7a:	0f 83 2c ae 01 00    	jae    1baac <main+0x1b252>
     c80:	0f b6 95 e0 fe ff ff 	movzbl -0x120(%rbp),%edx
     c87:	0f b6 85 09 ff ff ff 	movzbl -0xf7(%rbp),%eax
     c8e:	38 c2                	cmp    %al,%dl
     c90:	0f 86 1c ae 01 00    	jbe    1bab2 <main+0x1b258>
     c96:	0f b6 95 e0 fe ff ff 	movzbl -0x120(%rbp),%edx
     c9d:	0f b6 85 0a ff ff ff 	movzbl -0xf6(%rbp),%eax
     ca4:	38 c2                	cmp    %al,%dl
     ca6:	0f 83 0c ae 01 00    	jae    1bab8 <main+0x1b25e>
     cac:	0f b6 95 e0 fe ff ff 	movzbl -0x120(%rbp),%edx
     cb3:	0f b6 85 0b ff ff ff 	movzbl -0xf5(%rbp),%eax
     cba:	38 c2                	cmp    %al,%dl
     cbc:	0f 86 fc ad 01 00    	jbe    1babe <main+0x1b264>
     cc2:	0f b6 95 e0 fe ff ff 	movzbl -0x120(%rbp),%edx
     cc9:	0f b6 85 0c ff ff ff 	movzbl -0xf4(%rbp),%eax
     cd0:	38 c2                	cmp    %al,%dl
     cd2:	0f 83 ec ad 01 00    	jae    1bac4 <main+0x1b26a>
     cd8:	0f b6 95 e0 fe ff ff 	movzbl -0x120(%rbp),%edx
     cdf:	0f b6 85 0d ff ff ff 	movzbl -0xf3(%rbp),%eax
     ce6:	38 c2                	cmp    %al,%dl
     ce8:	0f 86 dc ad 01 00    	jbe    1baca <main+0x1b270>
     cee:	0f b6 95 e0 fe ff ff 	movzbl -0x120(%rbp),%edx
     cf5:	0f b6 85 0e ff ff ff 	movzbl -0xf2(%rbp),%eax
     cfc:	38 c2                	cmp    %al,%dl
     cfe:	0f 86 cc ad 01 00    	jbe    1bad0 <main+0x1b276>
     d04:	0f b6 95 e0 fe ff ff 	movzbl -0x120(%rbp),%edx
     d0b:	0f b6 85 0f ff ff ff 	movzbl -0xf1(%rbp),%eax
     d12:	38 c2                	cmp    %al,%dl
     d14:	0f 83 bc ad 01 00    	jae    1bad6 <main+0x1b27c>
     d1a:	0f b6 95 e0 fe ff ff 	movzbl -0x120(%rbp),%edx
     d21:	0f b6 85 10 ff ff ff 	movzbl -0xf0(%rbp),%eax
     d28:	38 c2                	cmp    %al,%dl
     d2a:	0f 83 ac ad 01 00    	jae    1badc <main+0x1b282>
     d30:	0f b6 95 e0 fe ff ff 	movzbl -0x120(%rbp),%edx
     d37:	0f b6 85 11 ff ff ff 	movzbl -0xef(%rbp),%eax
     d3e:	38 c2                	cmp    %al,%dl
     d40:	0f 86 9c ad 01 00    	jbe    1bae2 <main+0x1b288>
     d46:	0f b6 95 e0 fe ff ff 	movzbl -0x120(%rbp),%edx
     d4d:	0f b6 85 12 ff ff ff 	movzbl -0xee(%rbp),%eax
     d54:	38 c2                	cmp    %al,%dl
     d56:	0f 86 8c ad 01 00    	jbe    1bae8 <main+0x1b28e>
     d5c:	0f b6 95 e0 fe ff ff 	movzbl -0x120(%rbp),%edx
     d63:	0f b6 85 13 ff ff ff 	movzbl -0xed(%rbp),%eax
     d6a:	38 c2                	cmp    %al,%dl
     d6c:	0f 83 7c ad 01 00    	jae    1baee <main+0x1b294>
     d72:	0f b6 95 e0 fe ff ff 	movzbl -0x120(%rbp),%edx
     d79:	0f b6 85 14 ff ff ff 	movzbl -0xec(%rbp),%eax
     d80:	38 c2                	cmp    %al,%dl
     d82:	0f 83 6c ad 01 00    	jae    1baf4 <main+0x1b29a>
     d88:	0f b6 95 e0 fe ff ff 	movzbl -0x120(%rbp),%edx
     d8f:	0f b6 85 15 ff ff ff 	movzbl -0xeb(%rbp),%eax
     d96:	38 c2                	cmp    %al,%dl
     d98:	0f 83 5c ad 01 00    	jae    1bafa <main+0x1b2a0>
     d9e:	0f b6 95 e0 fe ff ff 	movzbl -0x120(%rbp),%edx
     da5:	0f b6 85 16 ff ff ff 	movzbl -0xea(%rbp),%eax
     dac:	38 c2                	cmp    %al,%dl
     dae:	0f 83 4c ad 01 00    	jae    1bb00 <main+0x1b2a6>
     db4:	0f b6 95 e0 fe ff ff 	movzbl -0x120(%rbp),%edx
     dbb:	0f b6 85 17 ff ff ff 	movzbl -0xe9(%rbp),%eax
     dc2:	38 c2                	cmp    %al,%dl
     dc4:	0f 83 3c ad 01 00    	jae    1bb06 <main+0x1b2ac>
     dca:	0f b6 95 e0 fe ff ff 	movzbl -0x120(%rbp),%edx
     dd1:	0f b6 85 18 ff ff ff 	movzbl -0xe8(%rbp),%eax
     dd8:	38 c2                	cmp    %al,%dl
     dda:	0f 86 2c ad 01 00    	jbe    1bb0c <main+0x1b2b2>
     de0:	0f b6 95 e0 fe ff ff 	movzbl -0x120(%rbp),%edx
     de7:	0f b6 85 19 ff ff ff 	movzbl -0xe7(%rbp),%eax
     dee:	38 c2                	cmp    %al,%dl
     df0:	0f 83 1c ad 01 00    	jae    1bb12 <main+0x1b2b8>
     df6:	0f b6 95 e0 fe ff ff 	movzbl -0x120(%rbp),%edx
     dfd:	0f b6 85 1a ff ff ff 	movzbl -0xe6(%rbp),%eax
     e04:	38 c2                	cmp    %al,%dl
     e06:	0f 83 0c ad 01 00    	jae    1bb18 <main+0x1b2be>
     e0c:	0f b6 95 e0 fe ff ff 	movzbl -0x120(%rbp),%edx
     e13:	0f b6 85 1b ff ff ff 	movzbl -0xe5(%rbp),%eax
     e1a:	38 c2                	cmp    %al,%dl
     e1c:	0f 83 fc ac 01 00    	jae    1bb1e <main+0x1b2c4>
     e22:	0f b6 95 e0 fe ff ff 	movzbl -0x120(%rbp),%edx
     e29:	0f b6 85 1c ff ff ff 	movzbl -0xe4(%rbp),%eax
     e30:	38 c2                	cmp    %al,%dl
     e32:	0f 83 ec ac 01 00    	jae    1bb24 <main+0x1b2ca>
     e38:	0f b6 95 e0 fe ff ff 	movzbl -0x120(%rbp),%edx
     e3f:	0f b6 85 1d ff ff ff 	movzbl -0xe3(%rbp),%eax
     e46:	38 c2                	cmp    %al,%dl
     e48:	0f 86 dc ac 01 00    	jbe    1bb2a <main+0x1b2d0>
     e4e:	0f b6 95 e0 fe ff ff 	movzbl -0x120(%rbp),%edx
     e55:	0f b6 85 1e ff ff ff 	movzbl -0xe2(%rbp),%eax
     e5c:	38 c2                	cmp    %al,%dl
     e5e:	0f 83 cc ac 01 00    	jae    1bb30 <main+0x1b2d6>
     e64:	0f b6 95 e0 fe ff ff 	movzbl -0x120(%rbp),%edx
     e6b:	0f b6 85 1f ff ff ff 	movzbl -0xe1(%rbp),%eax
     e72:	38 c2                	cmp    %al,%dl
     e74:	0f 86 bc ac 01 00    	jbe    1bb36 <main+0x1b2dc>
     e7a:	0f b6 95 e0 fe ff ff 	movzbl -0x120(%rbp),%edx
     e81:	0f b6 85 20 ff ff ff 	movzbl -0xe0(%rbp),%eax
     e88:	38 c2                	cmp    %al,%dl
     e8a:	0f 86 ac ac 01 00    	jbe    1bb3c <main+0x1b2e2>
     e90:	0f b6 95 e0 fe ff ff 	movzbl -0x120(%rbp),%edx
     e97:	0f b6 85 21 ff ff ff 	movzbl -0xdf(%rbp),%eax
     e9e:	38 c2                	cmp    %al,%dl
     ea0:	0f 83 9c ac 01 00    	jae    1bb42 <main+0x1b2e8>
     ea6:	0f b6 95 e0 fe ff ff 	movzbl -0x120(%rbp),%edx
     ead:	0f b6 85 22 ff ff ff 	movzbl -0xde(%rbp),%eax
     eb4:	38 c2                	cmp    %al,%dl
     eb6:	0f 86 8c ac 01 00    	jbe    1bb48 <main+0x1b2ee>
     ebc:	0f b6 95 e0 fe ff ff 	movzbl -0x120(%rbp),%edx
     ec3:	0f b6 85 23 ff ff ff 	movzbl -0xdd(%rbp),%eax
     eca:	38 c2                	cmp    %al,%dl
     ecc:	0f 83 7c ac 01 00    	jae    1bb4e <main+0x1b2f4>
     ed2:	0f b6 95 e0 fe ff ff 	movzbl -0x120(%rbp),%edx
     ed9:	0f b6 85 24 ff ff ff 	movzbl -0xdc(%rbp),%eax
     ee0:	38 c2                	cmp    %al,%dl
     ee2:	0f 83 6c ac 01 00    	jae    1bb54 <main+0x1b2fa>
     ee8:	0f b6 95 e0 fe ff ff 	movzbl -0x120(%rbp),%edx
     eef:	0f b6 85 25 ff ff ff 	movzbl -0xdb(%rbp),%eax
     ef6:	38 c2                	cmp    %al,%dl
     ef8:	0f 83 5c ac 01 00    	jae    1bb5a <main+0x1b300>
     efe:	0f b6 95 e0 fe ff ff 	movzbl -0x120(%rbp),%edx
     f05:	0f b6 85 26 ff ff ff 	movzbl -0xda(%rbp),%eax
     f0c:	38 c2                	cmp    %al,%dl
     f0e:	0f 83 4c ac 01 00    	jae    1bb60 <main+0x1b306>
     f14:	0f b6 95 e0 fe ff ff 	movzbl -0x120(%rbp),%edx
     f1b:	0f b6 85 27 ff ff ff 	movzbl -0xd9(%rbp),%eax
     f22:	38 c2                	cmp    %al,%dl
     f24:	0f 83 3c ac 01 00    	jae    1bb66 <main+0x1b30c>
     f2a:	0f b6 95 e0 fe ff ff 	movzbl -0x120(%rbp),%edx
     f31:	0f b6 85 28 ff ff ff 	movzbl -0xd8(%rbp),%eax
     f38:	38 c2                	cmp    %al,%dl
     f3a:	0f 83 2c ac 01 00    	jae    1bb6c <main+0x1b312>
     f40:	0f b6 95 e1 fe ff ff 	movzbl -0x11f(%rbp),%edx
     f47:	0f b6 85 e0 fe ff ff 	movzbl -0x120(%rbp),%eax
     f4e:	38 c2                	cmp    %al,%dl
     f50:	0f 86 1c ac 01 00    	jbe    1bb72 <main+0x1b318>
     f56:	0f b6 95 e1 fe ff ff 	movzbl -0x11f(%rbp),%edx
     f5d:	0f b6 85 e2 fe ff ff 	movzbl -0x11e(%rbp),%eax
     f64:	38 c2                	cmp    %al,%dl
     f66:	0f 86 0c ac 01 00    	jbe    1bb78 <main+0x1b31e>
     f6c:	0f b6 95 e1 fe ff ff 	movzbl -0x11f(%rbp),%edx
     f73:	0f b6 85 e3 fe ff ff 	movzbl -0x11d(%rbp),%eax
     f7a:	38 c2                	cmp    %al,%dl
     f7c:	0f 86 fc ab 01 00    	jbe    1bb7e <main+0x1b324>
     f82:	0f b6 95 e1 fe ff ff 	movzbl -0x11f(%rbp),%edx
     f89:	0f b6 85 e4 fe ff ff 	movzbl -0x11c(%rbp),%eax
     f90:	38 c2                	cmp    %al,%dl
     f92:	0f 83 ec ab 01 00    	jae    1bb84 <main+0x1b32a>
     f98:	0f b6 95 e1 fe ff ff 	movzbl -0x11f(%rbp),%edx
     f9f:	0f b6 85 e5 fe ff ff 	movzbl -0x11b(%rbp),%eax
     fa6:	38 c2                	cmp    %al,%dl
     fa8:	0f 83 dc ab 01 00    	jae    1bb8a <main+0x1b330>
     fae:	0f b6 95 e1 fe ff ff 	movzbl -0x11f(%rbp),%edx
     fb5:	0f b6 85 e6 fe ff ff 	movzbl -0x11a(%rbp),%eax
     fbc:	38 c2                	cmp    %al,%dl
     fbe:	0f 86 cc ab 01 00    	jbe    1bb90 <main+0x1b336>
     fc4:	0f b6 95 e1 fe ff ff 	movzbl -0x11f(%rbp),%edx
     fcb:	0f b6 85 e7 fe ff ff 	movzbl -0x119(%rbp),%eax
     fd2:	38 c2                	cmp    %al,%dl
     fd4:	0f 86 bc ab 01 00    	jbe    1bb96 <main+0x1b33c>
     fda:	0f b6 95 e1 fe ff ff 	movzbl -0x11f(%rbp),%edx
     fe1:	0f b6 85 e8 fe ff ff 	movzbl -0x118(%rbp),%eax
     fe8:	38 c2                	cmp    %al,%dl
     fea:	0f 83 ac ab 01 00    	jae    1bb9c <main+0x1b342>
     ff0:	0f b6 95 e1 fe ff ff 	movzbl -0x11f(%rbp),%edx
     ff7:	0f b6 85 e9 fe ff ff 	movzbl -0x117(%rbp),%eax
     ffe:	38 c2                	cmp    %al,%dl
    1000:	0f 83 9c ab 01 00    	jae    1bba2 <main+0x1b348>
    1006:	0f b6 95 e1 fe ff ff 	movzbl -0x11f(%rbp),%edx
    100d:	0f b6 85 ea fe ff ff 	movzbl -0x116(%rbp),%eax
    1014:	38 c2                	cmp    %al,%dl
    1016:	0f 86 8c ab 01 00    	jbe    1bba8 <main+0x1b34e>
    101c:	0f b6 95 e1 fe ff ff 	movzbl -0x11f(%rbp),%edx
    1023:	0f b6 85 eb fe ff ff 	movzbl -0x115(%rbp),%eax
    102a:	38 c2                	cmp    %al,%dl
    102c:	0f 86 7c ab 01 00    	jbe    1bbae <main+0x1b354>
    1032:	0f b6 95 e1 fe ff ff 	movzbl -0x11f(%rbp),%edx
    1039:	0f b6 85 ec fe ff ff 	movzbl -0x114(%rbp),%eax
    1040:	38 c2                	cmp    %al,%dl
    1042:	0f 86 6c ab 01 00    	jbe    1bbb4 <main+0x1b35a>
    1048:	0f b6 95 e1 fe ff ff 	movzbl -0x11f(%rbp),%edx
    104f:	0f b6 85 ed fe ff ff 	movzbl -0x113(%rbp),%eax
    1056:	38 c2                	cmp    %al,%dl
    1058:	0f 86 5c ab 01 00    	jbe    1bbba <main+0x1b360>
    105e:	0f b6 95 e1 fe ff ff 	movzbl -0x11f(%rbp),%edx
    1065:	0f b6 85 ee fe ff ff 	movzbl -0x112(%rbp),%eax
    106c:	38 c2                	cmp    %al,%dl
    106e:	0f 83 4c ab 01 00    	jae    1bbc0 <main+0x1b366>
    1074:	0f b6 95 e1 fe ff ff 	movzbl -0x11f(%rbp),%edx
    107b:	0f b6 85 ef fe ff ff 	movzbl -0x111(%rbp),%eax
    1082:	38 c2                	cmp    %al,%dl
    1084:	0f 83 3c ab 01 00    	jae    1bbc6 <main+0x1b36c>
    108a:	0f b6 95 e1 fe ff ff 	movzbl -0x11f(%rbp),%edx
    1091:	0f b6 85 f0 fe ff ff 	movzbl -0x110(%rbp),%eax
    1098:	38 c2                	cmp    %al,%dl
    109a:	0f 83 2c ab 01 00    	jae    1bbcc <main+0x1b372>
    10a0:	0f b6 95 e1 fe ff ff 	movzbl -0x11f(%rbp),%edx
    10a7:	0f b6 85 f1 fe ff ff 	movzbl -0x10f(%rbp),%eax
    10ae:	38 c2                	cmp    %al,%dl
    10b0:	0f 83 1c ab 01 00    	jae    1bbd2 <main+0x1b378>
    10b6:	0f b6 95 e1 fe ff ff 	movzbl -0x11f(%rbp),%edx
    10bd:	0f b6 85 f2 fe ff ff 	movzbl -0x10e(%rbp),%eax
    10c4:	38 c2                	cmp    %al,%dl
    10c6:	0f 86 0c ab 01 00    	jbe    1bbd8 <main+0x1b37e>
    10cc:	0f b6 95 e1 fe ff ff 	movzbl -0x11f(%rbp),%edx
    10d3:	0f b6 85 f3 fe ff ff 	movzbl -0x10d(%rbp),%eax
    10da:	38 c2                	cmp    %al,%dl
    10dc:	0f 83 fc aa 01 00    	jae    1bbde <main+0x1b384>
    10e2:	0f b6 95 e1 fe ff ff 	movzbl -0x11f(%rbp),%edx
    10e9:	0f b6 85 f4 fe ff ff 	movzbl -0x10c(%rbp),%eax
    10f0:	38 c2                	cmp    %al,%dl
    10f2:	0f 83 ec aa 01 00    	jae    1bbe4 <main+0x1b38a>
    10f8:	0f b6 95 e1 fe ff ff 	movzbl -0x11f(%rbp),%edx
    10ff:	0f b6 85 f5 fe ff ff 	movzbl -0x10b(%rbp),%eax
    1106:	38 c2                	cmp    %al,%dl
    1108:	0f 86 dc aa 01 00    	jbe    1bbea <main+0x1b390>
    110e:	0f b6 95 e1 fe ff ff 	movzbl -0x11f(%rbp),%edx
    1115:	0f b6 85 f6 fe ff ff 	movzbl -0x10a(%rbp),%eax
    111c:	38 c2                	cmp    %al,%dl
    111e:	0f 83 cc aa 01 00    	jae    1bbf0 <main+0x1b396>
    1124:	0f b6 95 e1 fe ff ff 	movzbl -0x11f(%rbp),%edx
    112b:	0f b6 85 f7 fe ff ff 	movzbl -0x109(%rbp),%eax
    1132:	38 c2                	cmp    %al,%dl
    1134:	0f 83 bc aa 01 00    	jae    1bbf6 <main+0x1b39c>
    113a:	0f b6 95 e1 fe ff ff 	movzbl -0x11f(%rbp),%edx
    1141:	0f b6 85 f8 fe ff ff 	movzbl -0x108(%rbp),%eax
    1148:	38 c2                	cmp    %al,%dl
    114a:	0f 83 ac aa 01 00    	jae    1bbfc <main+0x1b3a2>
    1150:	0f b6 95 e1 fe ff ff 	movzbl -0x11f(%rbp),%edx
    1157:	0f b6 85 f9 fe ff ff 	movzbl -0x107(%rbp),%eax
    115e:	38 c2                	cmp    %al,%dl
    1160:	0f 86 9c aa 01 00    	jbe    1bc02 <main+0x1b3a8>
    1166:	0f b6 95 e1 fe ff ff 	movzbl -0x11f(%rbp),%edx
    116d:	0f b6 85 fa fe ff ff 	movzbl -0x106(%rbp),%eax
    1174:	38 c2                	cmp    %al,%dl
    1176:	0f 86 8c aa 01 00    	jbe    1bc08 <main+0x1b3ae>
    117c:	0f b6 95 e1 fe ff ff 	movzbl -0x11f(%rbp),%edx
    1183:	0f b6 85 fb fe ff ff 	movzbl -0x105(%rbp),%eax
    118a:	38 c2                	cmp    %al,%dl
    118c:	0f 83 7c aa 01 00    	jae    1bc0e <main+0x1b3b4>
    1192:	0f b6 95 e1 fe ff ff 	movzbl -0x11f(%rbp),%edx
    1199:	0f b6 85 fc fe ff ff 	movzbl -0x104(%rbp),%eax
    11a0:	38 c2                	cmp    %al,%dl
    11a2:	0f 83 6c aa 01 00    	jae    1bc14 <main+0x1b3ba>
    11a8:	0f b6 95 e1 fe ff ff 	movzbl -0x11f(%rbp),%edx
    11af:	0f b6 85 fd fe ff ff 	movzbl -0x103(%rbp),%eax
    11b6:	38 c2                	cmp    %al,%dl
    11b8:	0f 86 5c aa 01 00    	jbe    1bc1a <main+0x1b3c0>
    11be:	0f b6 95 e1 fe ff ff 	movzbl -0x11f(%rbp),%edx
    11c5:	0f b6 85 fe fe ff ff 	movzbl -0x102(%rbp),%eax
    11cc:	38 c2                	cmp    %al,%dl
    11ce:	0f 83 4c aa 01 00    	jae    1bc20 <main+0x1b3c6>
    11d4:	0f b6 95 e1 fe ff ff 	movzbl -0x11f(%rbp),%edx
    11db:	0f b6 85 ff fe ff ff 	movzbl -0x101(%rbp),%eax
    11e2:	38 c2                	cmp    %al,%dl
    11e4:	0f 83 3c aa 01 00    	jae    1bc26 <main+0x1b3cc>
    11ea:	0f b6 95 e1 fe ff ff 	movzbl -0x11f(%rbp),%edx
    11f1:	0f b6 85 00 ff ff ff 	movzbl -0x100(%rbp),%eax
    11f8:	38 c2                	cmp    %al,%dl
    11fa:	0f 86 2c aa 01 00    	jbe    1bc2c <main+0x1b3d2>
    1200:	0f b6 95 e1 fe ff ff 	movzbl -0x11f(%rbp),%edx
    1207:	0f b6 85 01 ff ff ff 	movzbl -0xff(%rbp),%eax
    120e:	38 c2                	cmp    %al,%dl
    1210:	0f 86 1c aa 01 00    	jbe    1bc32 <main+0x1b3d8>
    1216:	0f b6 95 e1 fe ff ff 	movzbl -0x11f(%rbp),%edx
    121d:	0f b6 85 03 ff ff ff 	movzbl -0xfd(%rbp),%eax
    1224:	38 c2                	cmp    %al,%dl
    1226:	0f 86 0c aa 01 00    	jbe    1bc38 <main+0x1b3de>
    122c:	0f b6 95 e1 fe ff ff 	movzbl -0x11f(%rbp),%edx
    1233:	0f b6 85 04 ff ff ff 	movzbl -0xfc(%rbp),%eax
    123a:	38 c2                	cmp    %al,%dl
    123c:	0f 83 fc a9 01 00    	jae    1bc3e <main+0x1b3e4>
    1242:	0f b6 95 e1 fe ff ff 	movzbl -0x11f(%rbp),%edx
    1249:	0f b6 85 05 ff ff ff 	movzbl -0xfb(%rbp),%eax
    1250:	38 c2                	cmp    %al,%dl
    1252:	0f 83 ec a9 01 00    	jae    1bc44 <main+0x1b3ea>
    1258:	0f b6 95 e1 fe ff ff 	movzbl -0x11f(%rbp),%edx
    125f:	0f b6 85 06 ff ff ff 	movzbl -0xfa(%rbp),%eax
    1266:	38 c2                	cmp    %al,%dl
    1268:	0f 86 dc a9 01 00    	jbe    1bc4a <main+0x1b3f0>
    126e:	0f b6 95 e1 fe ff ff 	movzbl -0x11f(%rbp),%edx
    1275:	0f b6 85 07 ff ff ff 	movzbl -0xf9(%rbp),%eax
    127c:	38 c2                	cmp    %al,%dl
    127e:	0f 83 cc a9 01 00    	jae    1bc50 <main+0x1b3f6>
    1284:	0f b6 95 e1 fe ff ff 	movzbl -0x11f(%rbp),%edx
    128b:	0f b6 85 08 ff ff ff 	movzbl -0xf8(%rbp),%eax
    1292:	38 c2                	cmp    %al,%dl
    1294:	0f 86 bc a9 01 00    	jbe    1bc56 <main+0x1b3fc>
    129a:	0f b6 95 e1 fe ff ff 	movzbl -0x11f(%rbp),%edx
    12a1:	0f b6 85 09 ff ff ff 	movzbl -0xf7(%rbp),%eax
    12a8:	38 c2                	cmp    %al,%dl
    12aa:	0f 86 ac a9 01 00    	jbe    1bc5c <main+0x1b402>
    12b0:	0f b6 95 e1 fe ff ff 	movzbl -0x11f(%rbp),%edx
    12b7:	0f b6 85 0a ff ff ff 	movzbl -0xf6(%rbp),%eax
    12be:	38 c2                	cmp    %al,%dl
    12c0:	0f 83 9c a9 01 00    	jae    1bc62 <main+0x1b408>
    12c6:	0f b6 95 e1 fe ff ff 	movzbl -0x11f(%rbp),%edx
    12cd:	0f b6 85 0b ff ff ff 	movzbl -0xf5(%rbp),%eax
    12d4:	38 c2                	cmp    %al,%dl
    12d6:	0f 86 8c a9 01 00    	jbe    1bc68 <main+0x1b40e>
    12dc:	0f b6 95 e1 fe ff ff 	movzbl -0x11f(%rbp),%edx
    12e3:	0f b6 85 0d ff ff ff 	movzbl -0xf3(%rbp),%eax
    12ea:	38 c2                	cmp    %al,%dl
    12ec:	0f 86 7c a9 01 00    	jbe    1bc6e <main+0x1b414>
    12f2:	0f b6 95 e1 fe ff ff 	movzbl -0x11f(%rbp),%edx
    12f9:	0f b6 85 0e ff ff ff 	movzbl -0xf2(%rbp),%eax
    1300:	38 c2                	cmp    %al,%dl
    1302:	0f 86 6c a9 01 00    	jbe    1bc74 <main+0x1b41a>
    1308:	0f b6 95 e1 fe ff ff 	movzbl -0x11f(%rbp),%edx
    130f:	0f b6 85 0f ff ff ff 	movzbl -0xf1(%rbp),%eax
    1316:	38 c2                	cmp    %al,%dl
    1318:	0f 83 5c a9 01 00    	jae    1bc7a <main+0x1b420>
    131e:	0f b6 95 e1 fe ff ff 	movzbl -0x11f(%rbp),%edx
    1325:	0f b6 85 10 ff ff ff 	movzbl -0xf0(%rbp),%eax
    132c:	38 c2                	cmp    %al,%dl
    132e:	0f 83 4c a9 01 00    	jae    1bc80 <main+0x1b426>
    1334:	0f b6 95 e1 fe ff ff 	movzbl -0x11f(%rbp),%edx
    133b:	0f b6 85 11 ff ff ff 	movzbl -0xef(%rbp),%eax
    1342:	38 c2                	cmp    %al,%dl
    1344:	0f 86 3c a9 01 00    	jbe    1bc86 <main+0x1b42c>
    134a:	0f b6 95 e1 fe ff ff 	movzbl -0x11f(%rbp),%edx
    1351:	0f b6 85 12 ff ff ff 	movzbl -0xee(%rbp),%eax
    1358:	38 c2                	cmp    %al,%dl
    135a:	0f 86 2c a9 01 00    	jbe    1bc8c <main+0x1b432>
    1360:	0f b6 95 e1 fe ff ff 	movzbl -0x11f(%rbp),%edx
    1367:	0f b6 85 13 ff ff ff 	movzbl -0xed(%rbp),%eax
    136e:	38 c2                	cmp    %al,%dl
    1370:	0f 86 1c a9 01 00    	jbe    1bc92 <main+0x1b438>
    1376:	0f b6 95 e1 fe ff ff 	movzbl -0x11f(%rbp),%edx
    137d:	0f b6 85 14 ff ff ff 	movzbl -0xec(%rbp),%eax
    1384:	38 c2                	cmp    %al,%dl
    1386:	0f 83 0c a9 01 00    	jae    1bc98 <main+0x1b43e>
    138c:	0f b6 95 e1 fe ff ff 	movzbl -0x11f(%rbp),%edx
    1393:	0f b6 85 15 ff ff ff 	movzbl -0xeb(%rbp),%eax
    139a:	38 c2                	cmp    %al,%dl
    139c:	0f 83 fc a8 01 00    	jae    1bc9e <main+0x1b444>
    13a2:	0f b6 95 e1 fe ff ff 	movzbl -0x11f(%rbp),%edx
    13a9:	0f b6 85 16 ff ff ff 	movzbl -0xea(%rbp),%eax
    13b0:	38 c2                	cmp    %al,%dl
    13b2:	0f 83 ec a8 01 00    	jae    1bca4 <main+0x1b44a>
    13b8:	0f b6 95 e1 fe ff ff 	movzbl -0x11f(%rbp),%edx
    13bf:	0f b6 85 17 ff ff ff 	movzbl -0xe9(%rbp),%eax
    13c6:	38 c2                	cmp    %al,%dl
    13c8:	0f 83 dc a8 01 00    	jae    1bcaa <main+0x1b450>
    13ce:	0f b6 95 e1 fe ff ff 	movzbl -0x11f(%rbp),%edx
    13d5:	0f b6 85 18 ff ff ff 	movzbl -0xe8(%rbp),%eax
    13dc:	38 c2                	cmp    %al,%dl
    13de:	0f 86 cc a8 01 00    	jbe    1bcb0 <main+0x1b456>
    13e4:	0f b6 95 e1 fe ff ff 	movzbl -0x11f(%rbp),%edx
    13eb:	0f b6 85 19 ff ff ff 	movzbl -0xe7(%rbp),%eax
    13f2:	38 c2                	cmp    %al,%dl
    13f4:	0f 83 bc a8 01 00    	jae    1bcb6 <main+0x1b45c>
    13fa:	0f b6 95 e1 fe ff ff 	movzbl -0x11f(%rbp),%edx
    1401:	0f b6 85 1a ff ff ff 	movzbl -0xe6(%rbp),%eax
    1408:	38 c2                	cmp    %al,%dl
    140a:	0f 83 ac a8 01 00    	jae    1bcbc <main+0x1b462>
    1410:	0f b6 95 e1 fe ff ff 	movzbl -0x11f(%rbp),%edx
    1417:	0f b6 85 1b ff ff ff 	movzbl -0xe5(%rbp),%eax
    141e:	38 c2                	cmp    %al,%dl
    1420:	0f 83 9c a8 01 00    	jae    1bcc2 <main+0x1b468>
    1426:	0f b6 95 e1 fe ff ff 	movzbl -0x11f(%rbp),%edx
    142d:	0f b6 85 1c ff ff ff 	movzbl -0xe4(%rbp),%eax
    1434:	38 c2                	cmp    %al,%dl
    1436:	0f 83 8c a8 01 00    	jae    1bcc8 <main+0x1b46e>
    143c:	0f b6 95 e1 fe ff ff 	movzbl -0x11f(%rbp),%edx
    1443:	0f b6 85 1d ff ff ff 	movzbl -0xe3(%rbp),%eax
    144a:	38 c2                	cmp    %al,%dl
    144c:	0f 86 7c a8 01 00    	jbe    1bcce <main+0x1b474>
    1452:	0f b6 95 e1 fe ff ff 	movzbl -0x11f(%rbp),%edx
    1459:	0f b6 85 1e ff ff ff 	movzbl -0xe2(%rbp),%eax
    1460:	38 c2                	cmp    %al,%dl
    1462:	0f 83 6c a8 01 00    	jae    1bcd4 <main+0x1b47a>
    1468:	0f b6 95 e1 fe ff ff 	movzbl -0x11f(%rbp),%edx
    146f:	0f b6 85 1f ff ff ff 	movzbl -0xe1(%rbp),%eax
    1476:	38 c2                	cmp    %al,%dl
    1478:	0f 86 5c a8 01 00    	jbe    1bcda <main+0x1b480>
    147e:	0f b6 95 e1 fe ff ff 	movzbl -0x11f(%rbp),%edx
    1485:	0f b6 85 20 ff ff ff 	movzbl -0xe0(%rbp),%eax
    148c:	38 c2                	cmp    %al,%dl
    148e:	0f 86 4c a8 01 00    	jbe    1bce0 <main+0x1b486>
    1494:	0f b6 95 e1 fe ff ff 	movzbl -0x11f(%rbp),%edx
    149b:	0f b6 85 21 ff ff ff 	movzbl -0xdf(%rbp),%eax
    14a2:	38 c2                	cmp    %al,%dl
    14a4:	0f 83 3c a8 01 00    	jae    1bce6 <main+0x1b48c>
    14aa:	0f b6 95 e1 fe ff ff 	movzbl -0x11f(%rbp),%edx
    14b1:	0f b6 85 22 ff ff ff 	movzbl -0xde(%rbp),%eax
    14b8:	38 c2                	cmp    %al,%dl
    14ba:	0f 86 2c a8 01 00    	jbe    1bcec <main+0x1b492>
    14c0:	0f b6 95 e1 fe ff ff 	movzbl -0x11f(%rbp),%edx
    14c7:	0f b6 85 24 ff ff ff 	movzbl -0xdc(%rbp),%eax
    14ce:	38 c2                	cmp    %al,%dl
    14d0:	0f 83 1c a8 01 00    	jae    1bcf2 <main+0x1b498>
    14d6:	0f b6 95 e1 fe ff ff 	movzbl -0x11f(%rbp),%edx
    14dd:	0f b6 85 25 ff ff ff 	movzbl -0xdb(%rbp),%eax
    14e4:	38 c2                	cmp    %al,%dl
    14e6:	0f 83 0c a8 01 00    	jae    1bcf8 <main+0x1b49e>
    14ec:	0f b6 95 e1 fe ff ff 	movzbl -0x11f(%rbp),%edx
    14f3:	0f b6 85 26 ff ff ff 	movzbl -0xda(%rbp),%eax
    14fa:	38 c2                	cmp    %al,%dl
    14fc:	0f 86 fc a7 01 00    	jbe    1bcfe <main+0x1b4a4>
    1502:	0f b6 95 e1 fe ff ff 	movzbl -0x11f(%rbp),%edx
    1509:	0f b6 85 27 ff ff ff 	movzbl -0xd9(%rbp),%eax
    1510:	38 c2                	cmp    %al,%dl
    1512:	0f 83 ec a7 01 00    	jae    1bd04 <main+0x1b4aa>
    1518:	0f b6 95 e1 fe ff ff 	movzbl -0x11f(%rbp),%edx
    151f:	0f b6 85 28 ff ff ff 	movzbl -0xd8(%rbp),%eax
    1526:	38 c2                	cmp    %al,%dl
    1528:	0f 83 dc a7 01 00    	jae    1bd0a <main+0x1b4b0>
    152e:	0f b6 95 e2 fe ff ff 	movzbl -0x11e(%rbp),%edx
    1535:	0f b6 85 e0 fe ff ff 	movzbl -0x120(%rbp),%eax
    153c:	38 c2                	cmp    %al,%dl
    153e:	0f 83 cc a7 01 00    	jae    1bd10 <main+0x1b4b6>
    1544:	0f b6 95 e2 fe ff ff 	movzbl -0x11e(%rbp),%edx
    154b:	0f b6 85 e1 fe ff ff 	movzbl -0x11f(%rbp),%eax
    1552:	38 c2                	cmp    %al,%dl
    1554:	0f 83 bc a7 01 00    	jae    1bd16 <main+0x1b4bc>
    155a:	0f b6 95 e2 fe ff ff 	movzbl -0x11e(%rbp),%edx
    1561:	0f b6 85 e3 fe ff ff 	movzbl -0x11d(%rbp),%eax
    1568:	38 c2                	cmp    %al,%dl
    156a:	0f 83 ac a7 01 00    	jae    1bd1c <main+0x1b4c2>
    1570:	0f b6 95 e2 fe ff ff 	movzbl -0x11e(%rbp),%edx
    1577:	0f b6 85 e4 fe ff ff 	movzbl -0x11c(%rbp),%eax
    157e:	38 c2                	cmp    %al,%dl
    1580:	0f 83 9c a7 01 00    	jae    1bd22 <main+0x1b4c8>
    1586:	0f b6 95 e2 fe ff ff 	movzbl -0x11e(%rbp),%edx
    158d:	0f b6 85 e5 fe ff ff 	movzbl -0x11b(%rbp),%eax
    1594:	38 c2                	cmp    %al,%dl
    1596:	0f 83 8c a7 01 00    	jae    1bd28 <main+0x1b4ce>
    159c:	0f b6 95 e2 fe ff ff 	movzbl -0x11e(%rbp),%edx
    15a3:	0f b6 85 e6 fe ff ff 	movzbl -0x11a(%rbp),%eax
    15aa:	38 c2                	cmp    %al,%dl
    15ac:	0f 83 7c a7 01 00    	jae    1bd2e <main+0x1b4d4>
    15b2:	0f b6 95 e2 fe ff ff 	movzbl -0x11e(%rbp),%edx
    15b9:	0f b6 85 e7 fe ff ff 	movzbl -0x119(%rbp),%eax
    15c0:	38 c2                	cmp    %al,%dl
    15c2:	0f 83 6c a7 01 00    	jae    1bd34 <main+0x1b4da>
    15c8:	0f b6 95 e2 fe ff ff 	movzbl -0x11e(%rbp),%edx
    15cf:	0f b6 85 e8 fe ff ff 	movzbl -0x118(%rbp),%eax
    15d6:	38 c2                	cmp    %al,%dl
    15d8:	0f 83 5c a7 01 00    	jae    1bd3a <main+0x1b4e0>
    15de:	0f b6 95 e2 fe ff ff 	movzbl -0x11e(%rbp),%edx
    15e5:	0f b6 85 e9 fe ff ff 	movzbl -0x117(%rbp),%eax
    15ec:	38 c2                	cmp    %al,%dl
    15ee:	0f 83 4c a7 01 00    	jae    1bd40 <main+0x1b4e6>
    15f4:	0f b6 95 e2 fe ff ff 	movzbl -0x11e(%rbp),%edx
    15fb:	0f b6 85 ea fe ff ff 	movzbl -0x116(%rbp),%eax
    1602:	38 c2                	cmp    %al,%dl
    1604:	0f 83 3c a7 01 00    	jae    1bd46 <main+0x1b4ec>
    160a:	0f b6 95 e2 fe ff ff 	movzbl -0x11e(%rbp),%edx
    1611:	0f b6 85 eb fe ff ff 	movzbl -0x115(%rbp),%eax
    1618:	38 c2                	cmp    %al,%dl
    161a:	0f 83 2c a7 01 00    	jae    1bd4c <main+0x1b4f2>
    1620:	0f b6 95 e2 fe ff ff 	movzbl -0x11e(%rbp),%edx
    1627:	0f b6 85 ec fe ff ff 	movzbl -0x114(%rbp),%eax
    162e:	38 c2                	cmp    %al,%dl
    1630:	0f 83 1c a7 01 00    	jae    1bd52 <main+0x1b4f8>
    1636:	0f b6 95 e2 fe ff ff 	movzbl -0x11e(%rbp),%edx
    163d:	0f b6 85 ed fe ff ff 	movzbl -0x113(%rbp),%eax
    1644:	38 c2                	cmp    %al,%dl
    1646:	0f 83 0c a7 01 00    	jae    1bd58 <main+0x1b4fe>
    164c:	0f b6 95 e2 fe ff ff 	movzbl -0x11e(%rbp),%edx
    1653:	0f b6 85 ee fe ff ff 	movzbl -0x112(%rbp),%eax
    165a:	38 c2                	cmp    %al,%dl
    165c:	0f 83 fc a6 01 00    	jae    1bd5e <main+0x1b504>
    1662:	0f b6 95 e2 fe ff ff 	movzbl -0x11e(%rbp),%edx
    1669:	0f b6 85 ef fe ff ff 	movzbl -0x111(%rbp),%eax
    1670:	38 c2                	cmp    %al,%dl
    1672:	0f 83 ec a6 01 00    	jae    1bd64 <main+0x1b50a>
    1678:	0f b6 95 e2 fe ff ff 	movzbl -0x11e(%rbp),%edx
    167f:	0f b6 85 f0 fe ff ff 	movzbl -0x110(%rbp),%eax
    1686:	38 c2                	cmp    %al,%dl
    1688:	0f 83 dc a6 01 00    	jae    1bd6a <main+0x1b510>
    168e:	0f b6 95 e2 fe ff ff 	movzbl -0x11e(%rbp),%edx
    1695:	0f b6 85 f1 fe ff ff 	movzbl -0x10f(%rbp),%eax
    169c:	38 c2                	cmp    %al,%dl
    169e:	0f 83 cc a6 01 00    	jae    1bd70 <main+0x1b516>
    16a4:	0f b6 95 e2 fe ff ff 	movzbl -0x11e(%rbp),%edx
    16ab:	0f b6 85 f2 fe ff ff 	movzbl -0x10e(%rbp),%eax
    16b2:	38 c2                	cmp    %al,%dl
    16b4:	0f 83 bc a6 01 00    	jae    1bd76 <main+0x1b51c>
    16ba:	0f b6 95 e2 fe ff ff 	movzbl -0x11e(%rbp),%edx
    16c1:	0f b6 85 f3 fe ff ff 	movzbl -0x10d(%rbp),%eax
    16c8:	38 c2                	cmp    %al,%dl
    16ca:	0f 83 ac a6 01 00    	jae    1bd7c <main+0x1b522>
    16d0:	0f b6 95 e2 fe ff ff 	movzbl -0x11e(%rbp),%edx
    16d7:	0f b6 85 f4 fe ff ff 	movzbl -0x10c(%rbp),%eax
    16de:	38 c2                	cmp    %al,%dl
    16e0:	0f 83 9c a6 01 00    	jae    1bd82 <main+0x1b528>
    16e6:	0f b6 95 e2 fe ff ff 	movzbl -0x11e(%rbp),%edx
    16ed:	0f b6 85 f5 fe ff ff 	movzbl -0x10b(%rbp),%eax
    16f4:	38 c2                	cmp    %al,%dl
    16f6:	0f 83 8c a6 01 00    	jae    1bd88 <main+0x1b52e>
    16fc:	0f b6 95 e2 fe ff ff 	movzbl -0x11e(%rbp),%edx
    1703:	0f b6 85 f6 fe ff ff 	movzbl -0x10a(%rbp),%eax
    170a:	38 c2                	cmp    %al,%dl
    170c:	0f 83 7c a6 01 00    	jae    1bd8e <main+0x1b534>
    1712:	0f b6 95 e2 fe ff ff 	movzbl -0x11e(%rbp),%edx
    1719:	0f b6 85 f7 fe ff ff 	movzbl -0x109(%rbp),%eax
    1720:	38 c2                	cmp    %al,%dl
    1722:	0f 83 6c a6 01 00    	jae    1bd94 <main+0x1b53a>
    1728:	0f b6 95 e2 fe ff ff 	movzbl -0x11e(%rbp),%edx
    172f:	0f b6 85 f8 fe ff ff 	movzbl -0x108(%rbp),%eax
    1736:	38 c2                	cmp    %al,%dl
    1738:	0f 83 5c a6 01 00    	jae    1bd9a <main+0x1b540>
    173e:	0f b6 95 e2 fe ff ff 	movzbl -0x11e(%rbp),%edx
    1745:	0f b6 85 f9 fe ff ff 	movzbl -0x107(%rbp),%eax
    174c:	38 c2                	cmp    %al,%dl
    174e:	0f 83 4c a6 01 00    	jae    1bda0 <main+0x1b546>
    1754:	0f b6 95 e2 fe ff ff 	movzbl -0x11e(%rbp),%edx
    175b:	0f b6 85 fa fe ff ff 	movzbl -0x106(%rbp),%eax
    1762:	38 c2                	cmp    %al,%dl
    1764:	0f 83 3c a6 01 00    	jae    1bda6 <main+0x1b54c>
    176a:	0f b6 95 e2 fe ff ff 	movzbl -0x11e(%rbp),%edx
    1771:	0f b6 85 fb fe ff ff 	movzbl -0x105(%rbp),%eax
    1778:	38 c2                	cmp    %al,%dl
    177a:	0f 83 2c a6 01 00    	jae    1bdac <main+0x1b552>
    1780:	0f b6 95 e2 fe ff ff 	movzbl -0x11e(%rbp),%edx
    1787:	0f b6 85 fc fe ff ff 	movzbl -0x104(%rbp),%eax
    178e:	38 c2                	cmp    %al,%dl
    1790:	0f 83 1c a6 01 00    	jae    1bdb2 <main+0x1b558>
    1796:	0f b6 95 e2 fe ff ff 	movzbl -0x11e(%rbp),%edx
    179d:	0f b6 85 fd fe ff ff 	movzbl -0x103(%rbp),%eax
    17a4:	38 c2                	cmp    %al,%dl
    17a6:	0f 83 0c a6 01 00    	jae    1bdb8 <main+0x1b55e>
    17ac:	0f b6 95 e2 fe ff ff 	movzbl -0x11e(%rbp),%edx
    17b3:	0f b6 85 fe fe ff ff 	movzbl -0x102(%rbp),%eax
    17ba:	38 c2                	cmp    %al,%dl
    17bc:	0f 83 fc a5 01 00    	jae    1bdbe <main+0x1b564>
    17c2:	0f b6 95 e2 fe ff ff 	movzbl -0x11e(%rbp),%edx
    17c9:	0f b6 85 ff fe ff ff 	movzbl -0x101(%rbp),%eax
    17d0:	38 c2                	cmp    %al,%dl
    17d2:	0f 83 ec a5 01 00    	jae    1bdc4 <main+0x1b56a>
    17d8:	0f b6 95 e2 fe ff ff 	movzbl -0x11e(%rbp),%edx
    17df:	0f b6 85 00 ff ff ff 	movzbl -0x100(%rbp),%eax
    17e6:	38 c2                	cmp    %al,%dl
    17e8:	0f 83 dc a5 01 00    	jae    1bdca <main+0x1b570>
    17ee:	0f b6 95 e2 fe ff ff 	movzbl -0x11e(%rbp),%edx
    17f5:	0f b6 85 01 ff ff ff 	movzbl -0xff(%rbp),%eax
    17fc:	38 c2                	cmp    %al,%dl
    17fe:	0f 83 cc a5 01 00    	jae    1bdd0 <main+0x1b576>
    1804:	0f b6 95 e2 fe ff ff 	movzbl -0x11e(%rbp),%edx
    180b:	0f b6 85 02 ff ff ff 	movzbl -0xfe(%rbp),%eax
    1812:	38 c2                	cmp    %al,%dl
    1814:	0f 83 bc a5 01 00    	jae    1bdd6 <main+0x1b57c>
    181a:	0f b6 95 e2 fe ff ff 	movzbl -0x11e(%rbp),%edx
    1821:	0f b6 85 04 ff ff ff 	movzbl -0xfc(%rbp),%eax
    1828:	38 c2                	cmp    %al,%dl
    182a:	0f 83 ac a5 01 00    	jae    1bddc <main+0x1b582>
    1830:	0f b6 95 e2 fe ff ff 	movzbl -0x11e(%rbp),%edx
    1837:	0f b6 85 05 ff ff ff 	movzbl -0xfb(%rbp),%eax
    183e:	38 c2                	cmp    %al,%dl
    1840:	0f 83 9c a5 01 00    	jae    1bde2 <main+0x1b588>
    1846:	0f b6 95 e2 fe ff ff 	movzbl -0x11e(%rbp),%edx
    184d:	0f b6 85 06 ff ff ff 	movzbl -0xfa(%rbp),%eax
    1854:	38 c2                	cmp    %al,%dl
    1856:	0f 83 8c a5 01 00    	jae    1bde8 <main+0x1b58e>
    185c:	0f b6 95 e2 fe ff ff 	movzbl -0x11e(%rbp),%edx
    1863:	0f b6 85 07 ff ff ff 	movzbl -0xf9(%rbp),%eax
    186a:	38 c2                	cmp    %al,%dl
    186c:	0f 83 7c a5 01 00    	jae    1bdee <main+0x1b594>
    1872:	0f b6 95 e2 fe ff ff 	movzbl -0x11e(%rbp),%edx
    1879:	0f b6 85 08 ff ff ff 	movzbl -0xf8(%rbp),%eax
    1880:	38 c2                	cmp    %al,%dl
    1882:	0f 83 6c a5 01 00    	jae    1bdf4 <main+0x1b59a>
    1888:	0f b6 95 e2 fe ff ff 	movzbl -0x11e(%rbp),%edx
    188f:	0f b6 85 0a ff ff ff 	movzbl -0xf6(%rbp),%eax
    1896:	38 c2                	cmp    %al,%dl
    1898:	0f 83 5c a5 01 00    	jae    1bdfa <main+0x1b5a0>
    189e:	0f b6 95 e2 fe ff ff 	movzbl -0x11e(%rbp),%edx
    18a5:	0f b6 85 0b ff ff ff 	movzbl -0xf5(%rbp),%eax
    18ac:	38 c2                	cmp    %al,%dl
    18ae:	0f 83 4c a5 01 00    	jae    1be00 <main+0x1b5a6>
    18b4:	0f b6 95 e2 fe ff ff 	movzbl -0x11e(%rbp),%edx
    18bb:	0f b6 85 0c ff ff ff 	movzbl -0xf4(%rbp),%eax
    18c2:	38 c2                	cmp    %al,%dl
    18c4:	0f 83 3c a5 01 00    	jae    1be06 <main+0x1b5ac>
    18ca:	0f b6 95 e2 fe ff ff 	movzbl -0x11e(%rbp),%edx
    18d1:	0f b6 85 0d ff ff ff 	movzbl -0xf3(%rbp),%eax
    18d8:	38 c2                	cmp    %al,%dl
    18da:	0f 83 2c a5 01 00    	jae    1be0c <main+0x1b5b2>
    18e0:	0f b6 95 e2 fe ff ff 	movzbl -0x11e(%rbp),%edx
    18e7:	0f b6 85 0f ff ff ff 	movzbl -0xf1(%rbp),%eax
    18ee:	38 c2                	cmp    %al,%dl
    18f0:	0f 83 1c a5 01 00    	jae    1be12 <main+0x1b5b8>
    18f6:	0f b6 95 e2 fe ff ff 	movzbl -0x11e(%rbp),%edx
    18fd:	0f b6 85 10 ff ff ff 	movzbl -0xf0(%rbp),%eax
    1904:	38 c2                	cmp    %al,%dl
    1906:	0f 83 0c a5 01 00    	jae    1be18 <main+0x1b5be>
    190c:	0f b6 95 e2 fe ff ff 	movzbl -0x11e(%rbp),%edx
    1913:	0f b6 85 11 ff ff ff 	movzbl -0xef(%rbp),%eax
    191a:	38 c2                	cmp    %al,%dl
    191c:	0f 83 fc a4 01 00    	jae    1be1e <main+0x1b5c4>
    1922:	0f b6 95 e2 fe ff ff 	movzbl -0x11e(%rbp),%edx
    1929:	0f b6 85 12 ff ff ff 	movzbl -0xee(%rbp),%eax
    1930:	38 c2                	cmp    %al,%dl
    1932:	0f 83 ec a4 01 00    	jae    1be24 <main+0x1b5ca>
    1938:	0f b6 95 e2 fe ff ff 	movzbl -0x11e(%rbp),%edx
    193f:	0f b6 85 13 ff ff ff 	movzbl -0xed(%rbp),%eax
    1946:	38 c2                	cmp    %al,%dl
    1948:	0f 83 dc a4 01 00    	jae    1be2a <main+0x1b5d0>
    194e:	0f b6 95 e2 fe ff ff 	movzbl -0x11e(%rbp),%edx
    1955:	0f b6 85 14 ff ff ff 	movzbl -0xec(%rbp),%eax
    195c:	38 c2                	cmp    %al,%dl
    195e:	0f 83 cc a4 01 00    	jae    1be30 <main+0x1b5d6>
    1964:	0f b6 95 e2 fe ff ff 	movzbl -0x11e(%rbp),%edx
    196b:	0f b6 85 15 ff ff ff 	movzbl -0xeb(%rbp),%eax
    1972:	38 c2                	cmp    %al,%dl
    1974:	0f 83 bc a4 01 00    	jae    1be36 <main+0x1b5dc>
    197a:	0f b6 95 e2 fe ff ff 	movzbl -0x11e(%rbp),%edx
    1981:	0f b6 85 16 ff ff ff 	movzbl -0xea(%rbp),%eax
    1988:	38 c2                	cmp    %al,%dl
    198a:	0f 83 ac a4 01 00    	jae    1be3c <main+0x1b5e2>
    1990:	0f b6 95 e2 fe ff ff 	movzbl -0x11e(%rbp),%edx
    1997:	0f b6 85 17 ff ff ff 	movzbl -0xe9(%rbp),%eax
    199e:	38 c2                	cmp    %al,%dl
    19a0:	0f 83 9c a4 01 00    	jae    1be42 <main+0x1b5e8>
    19a6:	0f b6 95 e2 fe ff ff 	movzbl -0x11e(%rbp),%edx
    19ad:	0f b6 85 19 ff ff ff 	movzbl -0xe7(%rbp),%eax
    19b4:	38 c2                	cmp    %al,%dl
    19b6:	0f 83 8c a4 01 00    	jae    1be48 <main+0x1b5ee>
    19bc:	0f b6 95 e2 fe ff ff 	movzbl -0x11e(%rbp),%edx
    19c3:	0f b6 85 1a ff ff ff 	movzbl -0xe6(%rbp),%eax
    19ca:	38 c2                	cmp    %al,%dl
    19cc:	0f 83 7c a4 01 00    	jae    1be4e <main+0x1b5f4>
    19d2:	0f b6 95 e2 fe ff ff 	movzbl -0x11e(%rbp),%edx
    19d9:	0f b6 85 1b ff ff ff 	movzbl -0xe5(%rbp),%eax
    19e0:	38 c2                	cmp    %al,%dl
    19e2:	0f 83 6c a4 01 00    	jae    1be54 <main+0x1b5fa>
    19e8:	0f b6 95 e2 fe ff ff 	movzbl -0x11e(%rbp),%edx
    19ef:	0f b6 85 1c ff ff ff 	movzbl -0xe4(%rbp),%eax
    19f6:	38 c2                	cmp    %al,%dl
    19f8:	0f 83 5c a4 01 00    	jae    1be5a <main+0x1b600>
    19fe:	0f b6 95 e2 fe ff ff 	movzbl -0x11e(%rbp),%edx
    1a05:	0f b6 85 1e ff ff ff 	movzbl -0xe2(%rbp),%eax
    1a0c:	38 c2                	cmp    %al,%dl
    1a0e:	0f 83 4c a4 01 00    	jae    1be60 <main+0x1b606>
    1a14:	0f b6 95 e2 fe ff ff 	movzbl -0x11e(%rbp),%edx
    1a1b:	0f b6 85 1f ff ff ff 	movzbl -0xe1(%rbp),%eax
    1a22:	38 c2                	cmp    %al,%dl
    1a24:	0f 83 3c a4 01 00    	jae    1be66 <main+0x1b60c>
    1a2a:	0f b6 95 e2 fe ff ff 	movzbl -0x11e(%rbp),%edx
    1a31:	0f b6 85 21 ff ff ff 	movzbl -0xdf(%rbp),%eax
    1a38:	38 c2                	cmp    %al,%dl
    1a3a:	0f 83 2c a4 01 00    	jae    1be6c <main+0x1b612>
    1a40:	0f b6 95 e2 fe ff ff 	movzbl -0x11e(%rbp),%edx
    1a47:	0f b6 85 23 ff ff ff 	movzbl -0xdd(%rbp),%eax
    1a4e:	38 c2                	cmp    %al,%dl
    1a50:	0f 83 1c a4 01 00    	jae    1be72 <main+0x1b618>
    1a56:	0f b6 95 e2 fe ff ff 	movzbl -0x11e(%rbp),%edx
    1a5d:	0f b6 85 24 ff ff ff 	movzbl -0xdc(%rbp),%eax
    1a64:	38 c2                	cmp    %al,%dl
    1a66:	0f 83 0c a4 01 00    	jae    1be78 <main+0x1b61e>
    1a6c:	0f b6 95 e2 fe ff ff 	movzbl -0x11e(%rbp),%edx
    1a73:	0f b6 85 25 ff ff ff 	movzbl -0xdb(%rbp),%eax
    1a7a:	38 c2                	cmp    %al,%dl
    1a7c:	0f 83 fc a3 01 00    	jae    1be7e <main+0x1b624>
    1a82:	0f b6 95 e2 fe ff ff 	movzbl -0x11e(%rbp),%edx
    1a89:	0f b6 85 26 ff ff ff 	movzbl -0xda(%rbp),%eax
    1a90:	38 c2                	cmp    %al,%dl
    1a92:	0f 83 ec a3 01 00    	jae    1be84 <main+0x1b62a>
    1a98:	0f b6 95 e2 fe ff ff 	movzbl -0x11e(%rbp),%edx
    1a9f:	0f b6 85 27 ff ff ff 	movzbl -0xd9(%rbp),%eax
    1aa6:	38 c2                	cmp    %al,%dl
    1aa8:	0f 83 dc a3 01 00    	jae    1be8a <main+0x1b630>
    1aae:	0f b6 95 e2 fe ff ff 	movzbl -0x11e(%rbp),%edx
    1ab5:	0f b6 85 28 ff ff ff 	movzbl -0xd8(%rbp),%eax
    1abc:	38 c2                	cmp    %al,%dl
    1abe:	0f 83 cc a3 01 00    	jae    1be90 <main+0x1b636>
    1ac4:	0f b6 95 e3 fe ff ff 	movzbl -0x11d(%rbp),%edx
    1acb:	0f b6 85 e0 fe ff ff 	movzbl -0x120(%rbp),%eax
    1ad2:	38 c2                	cmp    %al,%dl
    1ad4:	0f 86 bc a3 01 00    	jbe    1be96 <main+0x1b63c>
    1ada:	0f b6 95 e3 fe ff ff 	movzbl -0x11d(%rbp),%edx
    1ae1:	0f b6 85 e1 fe ff ff 	movzbl -0x11f(%rbp),%eax
    1ae8:	38 c2                	cmp    %al,%dl
    1aea:	0f 83 ac a3 01 00    	jae    1be9c <main+0x1b642>
    1af0:	0f b6 95 e3 fe ff ff 	movzbl -0x11d(%rbp),%edx
    1af7:	0f b6 85 e2 fe ff ff 	movzbl -0x11e(%rbp),%eax
    1afe:	38 c2                	cmp    %al,%dl
    1b00:	0f 86 9c a3 01 00    	jbe    1bea2 <main+0x1b648>
    1b06:	0f b6 95 e3 fe ff ff 	movzbl -0x11d(%rbp),%edx
    1b0d:	0f b6 85 e4 fe ff ff 	movzbl -0x11c(%rbp),%eax
    1b14:	38 c2                	cmp    %al,%dl
    1b16:	0f 83 8c a3 01 00    	jae    1bea8 <main+0x1b64e>
    1b1c:	0f b6 95 e3 fe ff ff 	movzbl -0x11d(%rbp),%edx
    1b23:	0f b6 85 e5 fe ff ff 	movzbl -0x11b(%rbp),%eax
    1b2a:	38 c2                	cmp    %al,%dl
    1b2c:	0f 83 7c a3 01 00    	jae    1beae <main+0x1b654>
    1b32:	0f b6 95 e3 fe ff ff 	movzbl -0x11d(%rbp),%edx
    1b39:	0f b6 85 e6 fe ff ff 	movzbl -0x11a(%rbp),%eax
    1b40:	38 c2                	cmp    %al,%dl
    1b42:	0f 83 6c a3 01 00    	jae    1beb4 <main+0x1b65a>
    1b48:	0f b6 95 e3 fe ff ff 	movzbl -0x11d(%rbp),%edx
    1b4f:	0f b6 85 e7 fe ff ff 	movzbl -0x119(%rbp),%eax
    1b56:	38 c2                	cmp    %al,%dl
    1b58:	0f 86 5c a3 01 00    	jbe    1beba <main+0x1b660>
    1b5e:	0f b6 95 e3 fe ff ff 	movzbl -0x11d(%rbp),%edx
    1b65:	0f b6 85 e8 fe ff ff 	movzbl -0x118(%rbp),%eax
    1b6c:	38 c2                	cmp    %al,%dl
    1b6e:	0f 83 4c a3 01 00    	jae    1bec0 <main+0x1b666>
    1b74:	0f b6 95 e3 fe ff ff 	movzbl -0x11d(%rbp),%edx
    1b7b:	0f b6 85 e9 fe ff ff 	movzbl -0x117(%rbp),%eax
    1b82:	38 c2                	cmp    %al,%dl
    1b84:	0f 83 3c a3 01 00    	jae    1bec6 <main+0x1b66c>
    1b8a:	0f b6 95 e3 fe ff ff 	movzbl -0x11d(%rbp),%edx
    1b91:	0f b6 85 ea fe ff ff 	movzbl -0x116(%rbp),%eax
    1b98:	38 c2                	cmp    %al,%dl
    1b9a:	0f 83 2c a3 01 00    	jae    1becc <main+0x1b672>
    1ba0:	0f b6 95 e3 fe ff ff 	movzbl -0x11d(%rbp),%edx
    1ba7:	0f b6 85 eb fe ff ff 	movzbl -0x115(%rbp),%eax
    1bae:	38 c2                	cmp    %al,%dl
    1bb0:	0f 86 1c a3 01 00    	jbe    1bed2 <main+0x1b678>
    1bb6:	0f b6 95 e3 fe ff ff 	movzbl -0x11d(%rbp),%edx
    1bbd:	0f b6 85 ec fe ff ff 	movzbl -0x114(%rbp),%eax
    1bc4:	38 c2                	cmp    %al,%dl
    1bc6:	0f 83 0c a3 01 00    	jae    1bed8 <main+0x1b67e>
    1bcc:	0f b6 95 e3 fe ff ff 	movzbl -0x11d(%rbp),%edx
    1bd3:	0f b6 85 ed fe ff ff 	movzbl -0x113(%rbp),%eax
    1bda:	38 c2                	cmp    %al,%dl
    1bdc:	0f 86 fc a2 01 00    	jbe    1bede <main+0x1b684>
    1be2:	0f b6 95 e3 fe ff ff 	movzbl -0x11d(%rbp),%edx
    1be9:	0f b6 85 ee fe ff ff 	movzbl -0x112(%rbp),%eax
    1bf0:	38 c2                	cmp    %al,%dl
    1bf2:	0f 83 ec a2 01 00    	jae    1bee4 <main+0x1b68a>
    1bf8:	0f b6 95 e3 fe ff ff 	movzbl -0x11d(%rbp),%edx
    1bff:	0f b6 85 ef fe ff ff 	movzbl -0x111(%rbp),%eax
    1c06:	38 c2                	cmp    %al,%dl
    1c08:	0f 83 dc a2 01 00    	jae    1beea <main+0x1b690>
    1c0e:	0f b6 95 e3 fe ff ff 	movzbl -0x11d(%rbp),%edx
    1c15:	0f b6 85 f0 fe ff ff 	movzbl -0x110(%rbp),%eax
    1c1c:	38 c2                	cmp    %al,%dl
    1c1e:	0f 83 cc a2 01 00    	jae    1bef0 <main+0x1b696>
    1c24:	0f b6 95 e3 fe ff ff 	movzbl -0x11d(%rbp),%edx
    1c2b:	0f b6 85 f1 fe ff ff 	movzbl -0x10f(%rbp),%eax
    1c32:	38 c2                	cmp    %al,%dl
    1c34:	0f 83 bc a2 01 00    	jae    1bef6 <main+0x1b69c>
    1c3a:	0f b6 95 e3 fe ff ff 	movzbl -0x11d(%rbp),%edx
    1c41:	0f b6 85 f2 fe ff ff 	movzbl -0x10e(%rbp),%eax
    1c48:	38 c2                	cmp    %al,%dl
    1c4a:	0f 86 ac a2 01 00    	jbe    1befc <main+0x1b6a2>
    1c50:	0f b6 95 e3 fe ff ff 	movzbl -0x11d(%rbp),%edx
    1c57:	0f b6 85 f3 fe ff ff 	movzbl -0x10d(%rbp),%eax
    1c5e:	38 c2                	cmp    %al,%dl
    1c60:	0f 83 9c a2 01 00    	jae    1bf02 <main+0x1b6a8>
    1c66:	0f b6 95 e3 fe ff ff 	movzbl -0x11d(%rbp),%edx
    1c6d:	0f b6 85 f4 fe ff ff 	movzbl -0x10c(%rbp),%eax
    1c74:	38 c2                	cmp    %al,%dl
    1c76:	0f 83 8c a2 01 00    	jae    1bf08 <main+0x1b6ae>
    1c7c:	0f b6 95 e3 fe ff ff 	movzbl -0x11d(%rbp),%edx
    1c83:	0f b6 85 f5 fe ff ff 	movzbl -0x10b(%rbp),%eax
    1c8a:	38 c2                	cmp    %al,%dl
    1c8c:	0f 83 7c a2 01 00    	jae    1bf0e <main+0x1b6b4>
    1c92:	0f b6 95 e3 fe ff ff 	movzbl -0x11d(%rbp),%edx
    1c99:	0f b6 85 f6 fe ff ff 	movzbl -0x10a(%rbp),%eax
    1ca0:	38 c2                	cmp    %al,%dl
    1ca2:	0f 83 6c a2 01 00    	jae    1bf14 <main+0x1b6ba>
    1ca8:	0f b6 95 e3 fe ff ff 	movzbl -0x11d(%rbp),%edx
    1caf:	0f b6 85 f7 fe ff ff 	movzbl -0x109(%rbp),%eax
    1cb6:	38 c2                	cmp    %al,%dl
    1cb8:	0f 83 5c a2 01 00    	jae    1bf1a <main+0x1b6c0>
    1cbe:	0f b6 95 e3 fe ff ff 	movzbl -0x11d(%rbp),%edx
    1cc5:	0f b6 85 f8 fe ff ff 	movzbl -0x108(%rbp),%eax
    1ccc:	38 c2                	cmp    %al,%dl
    1cce:	0f 83 4c a2 01 00    	jae    1bf20 <main+0x1b6c6>
    1cd4:	0f b6 95 e3 fe ff ff 	movzbl -0x11d(%rbp),%edx
    1cdb:	0f b6 85 f9 fe ff ff 	movzbl -0x107(%rbp),%eax
    1ce2:	38 c2                	cmp    %al,%dl
    1ce4:	0f 86 3c a2 01 00    	jbe    1bf26 <main+0x1b6cc>
    1cea:	0f b6 95 e3 fe ff ff 	movzbl -0x11d(%rbp),%edx
    1cf1:	0f b6 85 fa fe ff ff 	movzbl -0x106(%rbp),%eax
    1cf8:	38 c2                	cmp    %al,%dl
    1cfa:	0f 86 2c a2 01 00    	jbe    1bf2c <main+0x1b6d2>
    1d00:	0f b6 95 e3 fe ff ff 	movzbl -0x11d(%rbp),%edx
    1d07:	0f b6 85 fb fe ff ff 	movzbl -0x105(%rbp),%eax
    1d0e:	38 c2                	cmp    %al,%dl
    1d10:	0f 83 1c a2 01 00    	jae    1bf32 <main+0x1b6d8>
    1d16:	0f b6 95 e3 fe ff ff 	movzbl -0x11d(%rbp),%edx
    1d1d:	0f b6 85 fc fe ff ff 	movzbl -0x104(%rbp),%eax
    1d24:	38 c2                	cmp    %al,%dl
    1d26:	0f 83 0c a2 01 00    	jae    1bf38 <main+0x1b6de>
    1d2c:	0f b6 95 e3 fe ff ff 	movzbl -0x11d(%rbp),%edx
    1d33:	0f b6 85 fd fe ff ff 	movzbl -0x103(%rbp),%eax
    1d3a:	38 c2                	cmp    %al,%dl
    1d3c:	0f 86 fc a1 01 00    	jbe    1bf3e <main+0x1b6e4>
    1d42:	0f b6 95 e3 fe ff ff 	movzbl -0x11d(%rbp),%edx
    1d49:	0f b6 85 fe fe ff ff 	movzbl -0x102(%rbp),%eax
    1d50:	38 c2                	cmp    %al,%dl
    1d52:	0f 83 ec a1 01 00    	jae    1bf44 <main+0x1b6ea>
    1d58:	0f b6 95 e3 fe ff ff 	movzbl -0x11d(%rbp),%edx
    1d5f:	0f b6 85 ff fe ff ff 	movzbl -0x101(%rbp),%eax
    1d66:	38 c2                	cmp    %al,%dl
    1d68:	0f 83 dc a1 01 00    	jae    1bf4a <main+0x1b6f0>
    1d6e:	0f b6 95 e3 fe ff ff 	movzbl -0x11d(%rbp),%edx
    1d75:	0f b6 85 00 ff ff ff 	movzbl -0x100(%rbp),%eax
    1d7c:	38 c2                	cmp    %al,%dl
    1d7e:	0f 83 cc a1 01 00    	jae    1bf50 <main+0x1b6f6>
    1d84:	0f b6 95 e3 fe ff ff 	movzbl -0x11d(%rbp),%edx
    1d8b:	0f b6 85 01 ff ff ff 	movzbl -0xff(%rbp),%eax
    1d92:	38 c2                	cmp    %al,%dl
    1d94:	0f 86 bc a1 01 00    	jbe    1bf56 <main+0x1b6fc>
    1d9a:	0f b6 95 e3 fe ff ff 	movzbl -0x11d(%rbp),%edx
    1da1:	0f b6 85 02 ff ff ff 	movzbl -0xfe(%rbp),%eax
    1da8:	38 c2                	cmp    %al,%dl
    1daa:	0f 83 ac a1 01 00    	jae    1bf5c <main+0x1b702>
    1db0:	0f b6 95 e3 fe ff ff 	movzbl -0x11d(%rbp),%edx
    1db7:	0f b6 85 03 ff ff ff 	movzbl -0xfd(%rbp),%eax
    1dbe:	38 c2                	cmp    %al,%dl
    1dc0:	0f 86 9c a1 01 00    	jbe    1bf62 <main+0x1b708>
    1dc6:	0f b6 95 e3 fe ff ff 	movzbl -0x11d(%rbp),%edx
    1dcd:	0f b6 85 04 ff ff ff 	movzbl -0xfc(%rbp),%eax
    1dd4:	38 c2                	cmp    %al,%dl
    1dd6:	0f 83 8c a1 01 00    	jae    1bf68 <main+0x1b70e>
    1ddc:	0f b6 95 e3 fe ff ff 	movzbl -0x11d(%rbp),%edx
    1de3:	0f b6 85 05 ff ff ff 	movzbl -0xfb(%rbp),%eax
    1dea:	38 c2                	cmp    %al,%dl
    1dec:	0f 83 7c a1 01 00    	jae    1bf6e <main+0x1b714>
    1df2:	0f b6 95 e3 fe ff ff 	movzbl -0x11d(%rbp),%edx
    1df9:	0f b6 85 06 ff ff ff 	movzbl -0xfa(%rbp),%eax
    1e00:	38 c2                	cmp    %al,%dl
    1e02:	0f 86 6c a1 01 00    	jbe    1bf74 <main+0x1b71a>
    1e08:	0f b6 95 e3 fe ff ff 	movzbl -0x11d(%rbp),%edx
    1e0f:	0f b6 85 07 ff ff ff 	movzbl -0xf9(%rbp),%eax
    1e16:	38 c2                	cmp    %al,%dl
    1e18:	0f 83 5c a1 01 00    	jae    1bf7a <main+0x1b720>
    1e1e:	0f b6 95 e3 fe ff ff 	movzbl -0x11d(%rbp),%edx
    1e25:	0f b6 85 09 ff ff ff 	movzbl -0xf7(%rbp),%eax
    1e2c:	38 c2                	cmp    %al,%dl
    1e2e:	0f 86 4c a1 01 00    	jbe    1bf80 <main+0x1b726>
    1e34:	0f b6 95 e3 fe ff ff 	movzbl -0x11d(%rbp),%edx
    1e3b:	0f b6 85 0a ff ff ff 	movzbl -0xf6(%rbp),%eax
    1e42:	38 c2                	cmp    %al,%dl
    1e44:	0f 83 3c a1 01 00    	jae    1bf86 <main+0x1b72c>
    1e4a:	0f b6 95 e3 fe ff ff 	movzbl -0x11d(%rbp),%edx
    1e51:	0f b6 85 0b ff ff ff 	movzbl -0xf5(%rbp),%eax
    1e58:	38 c2                	cmp    %al,%dl
    1e5a:	0f 86 2c a1 01 00    	jbe    1bf8c <main+0x1b732>
    1e60:	0f b6 95 e3 fe ff ff 	movzbl -0x11d(%rbp),%edx
    1e67:	0f b6 85 0c ff ff ff 	movzbl -0xf4(%rbp),%eax
    1e6e:	38 c2                	cmp    %al,%dl
    1e70:	0f 83 1c a1 01 00    	jae    1bf92 <main+0x1b738>
    1e76:	0f b6 95 e3 fe ff ff 	movzbl -0x11d(%rbp),%edx
    1e7d:	0f b6 85 0d ff ff ff 	movzbl -0xf3(%rbp),%eax
    1e84:	38 c2                	cmp    %al,%dl
    1e86:	0f 86 0c a1 01 00    	jbe    1bf98 <main+0x1b73e>
    1e8c:	0f b6 95 e3 fe ff ff 	movzbl -0x11d(%rbp),%edx
    1e93:	0f b6 85 0e ff ff ff 	movzbl -0xf2(%rbp),%eax
    1e9a:	38 c2                	cmp    %al,%dl
    1e9c:	0f 86 fc a0 01 00    	jbe    1bf9e <main+0x1b744>
    1ea2:	0f b6 95 e3 fe ff ff 	movzbl -0x11d(%rbp),%edx
    1ea9:	0f b6 85 0f ff ff ff 	movzbl -0xf1(%rbp),%eax
    1eb0:	38 c2                	cmp    %al,%dl
    1eb2:	0f 83 ec a0 01 00    	jae    1bfa4 <main+0x1b74a>
    1eb8:	0f b6 95 e3 fe ff ff 	movzbl -0x11d(%rbp),%edx
    1ebf:	0f b6 85 10 ff ff ff 	movzbl -0xf0(%rbp),%eax
    1ec6:	38 c2                	cmp    %al,%dl
    1ec8:	0f 83 dc a0 01 00    	jae    1bfaa <main+0x1b750>
    1ece:	0f b6 95 e3 fe ff ff 	movzbl -0x11d(%rbp),%edx
    1ed5:	0f b6 85 11 ff ff ff 	movzbl -0xef(%rbp),%eax
    1edc:	38 c2                	cmp    %al,%dl
    1ede:	0f 86 cc a0 01 00    	jbe    1bfb0 <main+0x1b756>
    1ee4:	0f b6 95 e3 fe ff ff 	movzbl -0x11d(%rbp),%edx
    1eeb:	0f b6 85 12 ff ff ff 	movzbl -0xee(%rbp),%eax
    1ef2:	38 c2                	cmp    %al,%dl
    1ef4:	0f 86 bc a0 01 00    	jbe    1bfb6 <main+0x1b75c>
    1efa:	0f b6 95 e3 fe ff ff 	movzbl -0x11d(%rbp),%edx
    1f01:	0f b6 85 13 ff ff ff 	movzbl -0xed(%rbp),%eax
    1f08:	38 c2                	cmp    %al,%dl
    1f0a:	0f 83 ac a0 01 00    	jae    1bfbc <main+0x1b762>
    1f10:	0f b6 95 e3 fe ff ff 	movzbl -0x11d(%rbp),%edx
    1f17:	0f b6 85 14 ff ff ff 	movzbl -0xec(%rbp),%eax
    1f1e:	38 c2                	cmp    %al,%dl
    1f20:	0f 83 9c a0 01 00    	jae    1bfc2 <main+0x1b768>
    1f26:	0f b6 95 e3 fe ff ff 	movzbl -0x11d(%rbp),%edx
    1f2d:	0f b6 85 15 ff ff ff 	movzbl -0xeb(%rbp),%eax
    1f34:	38 c2                	cmp    %al,%dl
    1f36:	0f 83 8c a0 01 00    	jae    1bfc8 <main+0x1b76e>
    1f3c:	0f b6 95 e3 fe ff ff 	movzbl -0x11d(%rbp),%edx
    1f43:	0f b6 85 16 ff ff ff 	movzbl -0xea(%rbp),%eax
    1f4a:	38 c2                	cmp    %al,%dl
    1f4c:	0f 83 7c a0 01 00    	jae    1bfce <main+0x1b774>
    1f52:	0f b6 95 e3 fe ff ff 	movzbl -0x11d(%rbp),%edx
    1f59:	0f b6 85 17 ff ff ff 	movzbl -0xe9(%rbp),%eax
    1f60:	38 c2                	cmp    %al,%dl
    1f62:	0f 83 6c a0 01 00    	jae    1bfd4 <main+0x1b77a>
    1f68:	0f b6 95 e3 fe ff ff 	movzbl -0x11d(%rbp),%edx
    1f6f:	0f b6 85 18 ff ff ff 	movzbl -0xe8(%rbp),%eax
    1f76:	38 c2                	cmp    %al,%dl
    1f78:	0f 86 5c a0 01 00    	jbe    1bfda <main+0x1b780>
    1f7e:	0f b6 95 e3 fe ff ff 	movzbl -0x11d(%rbp),%edx
    1f85:	0f b6 85 19 ff ff ff 	movzbl -0xe7(%rbp),%eax
    1f8c:	38 c2                	cmp    %al,%dl
    1f8e:	0f 83 4c a0 01 00    	jae    1bfe0 <main+0x1b786>
    1f94:	0f b6 95 e3 fe ff ff 	movzbl -0x11d(%rbp),%edx
    1f9b:	0f b6 85 1a ff ff ff 	movzbl -0xe6(%rbp),%eax
    1fa2:	38 c2                	cmp    %al,%dl
    1fa4:	0f 83 3c a0 01 00    	jae    1bfe6 <main+0x1b78c>
    1faa:	0f b6 95 e3 fe ff ff 	movzbl -0x11d(%rbp),%edx
    1fb1:	0f b6 85 1b ff ff ff 	movzbl -0xe5(%rbp),%eax
    1fb8:	38 c2                	cmp    %al,%dl
    1fba:	0f 83 2c a0 01 00    	jae    1bfec <main+0x1b792>
    1fc0:	0f b6 95 e3 fe ff ff 	movzbl -0x11d(%rbp),%edx
    1fc7:	0f b6 85 1c ff ff ff 	movzbl -0xe4(%rbp),%eax
    1fce:	38 c2                	cmp    %al,%dl
    1fd0:	0f 83 1c a0 01 00    	jae    1bff2 <main+0x1b798>
    1fd6:	0f b6 95 e3 fe ff ff 	movzbl -0x11d(%rbp),%edx
    1fdd:	0f b6 85 1d ff ff ff 	movzbl -0xe3(%rbp),%eax
    1fe4:	38 c2                	cmp    %al,%dl
    1fe6:	0f 86 0c a0 01 00    	jbe    1bff8 <main+0x1b79e>
    1fec:	0f b6 95 e3 fe ff ff 	movzbl -0x11d(%rbp),%edx
    1ff3:	0f b6 85 1e ff ff ff 	movzbl -0xe2(%rbp),%eax
    1ffa:	38 c2                	cmp    %al,%dl
    1ffc:	0f 83 fc 9f 01 00    	jae    1bffe <main+0x1b7a4>
    2002:	0f b6 95 e3 fe ff ff 	movzbl -0x11d(%rbp),%edx
    2009:	0f b6 85 1f ff ff ff 	movzbl -0xe1(%rbp),%eax
    2010:	38 c2                	cmp    %al,%dl
    2012:	0f 86 ec 9f 01 00    	jbe    1c004 <main+0x1b7aa>
    2018:	0f b6 95 e3 fe ff ff 	movzbl -0x11d(%rbp),%edx
    201f:	0f b6 85 20 ff ff ff 	movzbl -0xe0(%rbp),%eax
    2026:	38 c2                	cmp    %al,%dl
    2028:	0f 86 dc 9f 01 00    	jbe    1c00a <main+0x1b7b0>
    202e:	0f b6 95 e3 fe ff ff 	movzbl -0x11d(%rbp),%edx
    2035:	0f b6 85 21 ff ff ff 	movzbl -0xdf(%rbp),%eax
    203c:	38 c2                	cmp    %al,%dl
    203e:	0f 83 cc 9f 01 00    	jae    1c010 <main+0x1b7b6>
    2044:	0f b6 95 e3 fe ff ff 	movzbl -0x11d(%rbp),%edx
    204b:	0f b6 85 22 ff ff ff 	movzbl -0xde(%rbp),%eax
    2052:	38 c2                	cmp    %al,%dl
    2054:	0f 86 bc 9f 01 00    	jbe    1c016 <main+0x1b7bc>
    205a:	0f b6 95 e3 fe ff ff 	movzbl -0x11d(%rbp),%edx
    2061:	0f b6 85 23 ff ff ff 	movzbl -0xdd(%rbp),%eax
    2068:	38 c2                	cmp    %al,%dl
    206a:	0f 83 ac 9f 01 00    	jae    1c01c <main+0x1b7c2>
    2070:	0f b6 95 e3 fe ff ff 	movzbl -0x11d(%rbp),%edx
    2077:	0f b6 85 24 ff ff ff 	movzbl -0xdc(%rbp),%eax
    207e:	38 c2                	cmp    %al,%dl
    2080:	0f 83 9c 9f 01 00    	jae    1c022 <main+0x1b7c8>
    2086:	0f b6 95 e3 fe ff ff 	movzbl -0x11d(%rbp),%edx
    208d:	0f b6 85 25 ff ff ff 	movzbl -0xdb(%rbp),%eax
    2094:	38 c2                	cmp    %al,%dl
    2096:	0f 83 8c 9f 01 00    	jae    1c028 <main+0x1b7ce>
    209c:	0f b6 95 e3 fe ff ff 	movzbl -0x11d(%rbp),%edx
    20a3:	0f b6 85 26 ff ff ff 	movzbl -0xda(%rbp),%eax
    20aa:	38 c2                	cmp    %al,%dl
    20ac:	0f 83 7c 9f 01 00    	jae    1c02e <main+0x1b7d4>
    20b2:	0f b6 95 e3 fe ff ff 	movzbl -0x11d(%rbp),%edx
    20b9:	0f b6 85 27 ff ff ff 	movzbl -0xd9(%rbp),%eax
    20c0:	38 c2                	cmp    %al,%dl
    20c2:	0f 83 6c 9f 01 00    	jae    1c034 <main+0x1b7da>
    20c8:	0f b6 95 e3 fe ff ff 	movzbl -0x11d(%rbp),%edx
    20cf:	0f b6 85 28 ff ff ff 	movzbl -0xd8(%rbp),%eax
    20d6:	38 c2                	cmp    %al,%dl
    20d8:	0f 83 5c 9f 01 00    	jae    1c03a <main+0x1b7e0>
    20de:	0f b6 95 e4 fe ff ff 	movzbl -0x11c(%rbp),%edx
    20e5:	0f b6 85 e0 fe ff ff 	movzbl -0x120(%rbp),%eax
    20ec:	38 c2                	cmp    %al,%dl
    20ee:	0f 86 4c 9f 01 00    	jbe    1c040 <main+0x1b7e6>
    20f4:	0f b6 95 e4 fe ff ff 	movzbl -0x11c(%rbp),%edx
    20fb:	0f b6 85 e1 fe ff ff 	movzbl -0x11f(%rbp),%eax
    2102:	38 c2                	cmp    %al,%dl
    2104:	0f 86 3c 9f 01 00    	jbe    1c046 <main+0x1b7ec>
    210a:	0f b6 95 e4 fe ff ff 	movzbl -0x11c(%rbp),%edx
    2111:	0f b6 85 e2 fe ff ff 	movzbl -0x11e(%rbp),%eax
    2118:	38 c2                	cmp    %al,%dl
    211a:	0f 86 2c 9f 01 00    	jbe    1c04c <main+0x1b7f2>
    2120:	0f b6 95 e4 fe ff ff 	movzbl -0x11c(%rbp),%edx
    2127:	0f b6 85 e3 fe ff ff 	movzbl -0x11d(%rbp),%eax
    212e:	38 c2                	cmp    %al,%dl
    2130:	0f 86 1c 9f 01 00    	jbe    1c052 <main+0x1b7f8>
    2136:	0f b6 95 e4 fe ff ff 	movzbl -0x11c(%rbp),%edx
    213d:	0f b6 85 e5 fe ff ff 	movzbl -0x11b(%rbp),%eax
    2144:	38 c2                	cmp    %al,%dl
    2146:	0f 86 0c 9f 01 00    	jbe    1c058 <main+0x1b7fe>
    214c:	0f b6 95 e4 fe ff ff 	movzbl -0x11c(%rbp),%edx
    2153:	0f b6 85 e6 fe ff ff 	movzbl -0x11a(%rbp),%eax
    215a:	38 c2                	cmp    %al,%dl
    215c:	0f 86 fc 9e 01 00    	jbe    1c05e <main+0x1b804>
    2162:	0f b6 95 e4 fe ff ff 	movzbl -0x11c(%rbp),%edx
    2169:	0f b6 85 e7 fe ff ff 	movzbl -0x119(%rbp),%eax
    2170:	38 c2                	cmp    %al,%dl
    2172:	0f 86 ec 9e 01 00    	jbe    1c064 <main+0x1b80a>
    2178:	0f b6 95 e4 fe ff ff 	movzbl -0x11c(%rbp),%edx
    217f:	0f b6 85 e8 fe ff ff 	movzbl -0x118(%rbp),%eax
    2186:	38 c2                	cmp    %al,%dl
    2188:	0f 86 dc 9e 01 00    	jbe    1c06a <main+0x1b810>
    218e:	0f b6 95 e4 fe ff ff 	movzbl -0x11c(%rbp),%edx
    2195:	0f b6 85 e9 fe ff ff 	movzbl -0x117(%rbp),%eax
    219c:	38 c2                	cmp    %al,%dl
    219e:	0f 86 cc 9e 01 00    	jbe    1c070 <main+0x1b816>
    21a4:	0f b6 95 e4 fe ff ff 	movzbl -0x11c(%rbp),%edx
    21ab:	0f b6 85 ea fe ff ff 	movzbl -0x116(%rbp),%eax
    21b2:	38 c2                	cmp    %al,%dl
    21b4:	0f 86 bc 9e 01 00    	jbe    1c076 <main+0x1b81c>
    21ba:	0f b6 95 e4 fe ff ff 	movzbl -0x11c(%rbp),%edx
    21c1:	0f b6 85 eb fe ff ff 	movzbl -0x115(%rbp),%eax
    21c8:	38 c2                	cmp    %al,%dl
    21ca:	0f 86 ac 9e 01 00    	jbe    1c07c <main+0x1b822>
    21d0:	0f b6 95 e4 fe ff ff 	movzbl -0x11c(%rbp),%edx
    21d7:	0f b6 85 ec fe ff ff 	movzbl -0x114(%rbp),%eax
    21de:	38 c2                	cmp    %al,%dl
    21e0:	0f 86 9c 9e 01 00    	jbe    1c082 <main+0x1b828>
    21e6:	0f b6 95 e4 fe ff ff 	movzbl -0x11c(%rbp),%edx
    21ed:	0f b6 85 ed fe ff ff 	movzbl -0x113(%rbp),%eax
    21f4:	38 c2                	cmp    %al,%dl
    21f6:	0f 86 8c 9e 01 00    	jbe    1c088 <main+0x1b82e>
    21fc:	0f b6 95 e4 fe ff ff 	movzbl -0x11c(%rbp),%edx
    2203:	0f b6 85 ee fe ff ff 	movzbl -0x112(%rbp),%eax
    220a:	38 c2                	cmp    %al,%dl
    220c:	0f 86 7c 9e 01 00    	jbe    1c08e <main+0x1b834>
    2212:	0f b6 95 e4 fe ff ff 	movzbl -0x11c(%rbp),%edx
    2219:	0f b6 85 ef fe ff ff 	movzbl -0x111(%rbp),%eax
    2220:	38 c2                	cmp    %al,%dl
    2222:	0f 86 6c 9e 01 00    	jbe    1c094 <main+0x1b83a>
    2228:	0f b6 95 e4 fe ff ff 	movzbl -0x11c(%rbp),%edx
    222f:	0f b6 85 f0 fe ff ff 	movzbl -0x110(%rbp),%eax
    2236:	38 c2                	cmp    %al,%dl
    2238:	0f 86 5c 9e 01 00    	jbe    1c09a <main+0x1b840>
    223e:	0f b6 95 e4 fe ff ff 	movzbl -0x11c(%rbp),%edx
    2245:	0f b6 85 f1 fe ff ff 	movzbl -0x10f(%rbp),%eax
    224c:	38 c2                	cmp    %al,%dl
    224e:	0f 86 4c 9e 01 00    	jbe    1c0a0 <main+0x1b846>
    2254:	0f b6 95 e4 fe ff ff 	movzbl -0x11c(%rbp),%edx
    225b:	0f b6 85 f2 fe ff ff 	movzbl -0x10e(%rbp),%eax
    2262:	38 c2                	cmp    %al,%dl
    2264:	0f 86 3c 9e 01 00    	jbe    1c0a6 <main+0x1b84c>
    226a:	0f b6 95 e4 fe ff ff 	movzbl -0x11c(%rbp),%edx
    2271:	0f b6 85 f3 fe ff ff 	movzbl -0x10d(%rbp),%eax
    2278:	38 c2                	cmp    %al,%dl
    227a:	0f 86 2c 9e 01 00    	jbe    1c0ac <main+0x1b852>
    2280:	0f b6 95 e4 fe ff ff 	movzbl -0x11c(%rbp),%edx
    2287:	0f b6 85 f4 fe ff ff 	movzbl -0x10c(%rbp),%eax
    228e:	38 c2                	cmp    %al,%dl
    2290:	0f 86 1c 9e 01 00    	jbe    1c0b2 <main+0x1b858>
    2296:	0f b6 95 e4 fe ff ff 	movzbl -0x11c(%rbp),%edx
    229d:	0f b6 85 f5 fe ff ff 	movzbl -0x10b(%rbp),%eax
    22a4:	38 c2                	cmp    %al,%dl
    22a6:	0f 86 0c 9e 01 00    	jbe    1c0b8 <main+0x1b85e>
    22ac:	0f b6 95 e4 fe ff ff 	movzbl -0x11c(%rbp),%edx
    22b3:	0f b6 85 f6 fe ff ff 	movzbl -0x10a(%rbp),%eax
    22ba:	38 c2                	cmp    %al,%dl
    22bc:	0f 86 fc 9d 01 00    	jbe    1c0be <main+0x1b864>
    22c2:	0f b6 95 e4 fe ff ff 	movzbl -0x11c(%rbp),%edx
    22c9:	0f b6 85 f7 fe ff ff 	movzbl -0x109(%rbp),%eax
    22d0:	38 c2                	cmp    %al,%dl
    22d2:	0f 86 ec 9d 01 00    	jbe    1c0c4 <main+0x1b86a>
    22d8:	0f b6 95 e4 fe ff ff 	movzbl -0x11c(%rbp),%edx
    22df:	0f b6 85 f8 fe ff ff 	movzbl -0x108(%rbp),%eax
    22e6:	38 c2                	cmp    %al,%dl
    22e8:	0f 86 dc 9d 01 00    	jbe    1c0ca <main+0x1b870>
    22ee:	0f b6 95 e4 fe ff ff 	movzbl -0x11c(%rbp),%edx
    22f5:	0f b6 85 f9 fe ff ff 	movzbl -0x107(%rbp),%eax
    22fc:	38 c2                	cmp    %al,%dl
    22fe:	0f 86 cc 9d 01 00    	jbe    1c0d0 <main+0x1b876>
    2304:	0f b6 95 e4 fe ff ff 	movzbl -0x11c(%rbp),%edx
    230b:	0f b6 85 fa fe ff ff 	movzbl -0x106(%rbp),%eax
    2312:	38 c2                	cmp    %al,%dl
    2314:	0f 86 bc 9d 01 00    	jbe    1c0d6 <main+0x1b87c>
    231a:	0f b6 95 e4 fe ff ff 	movzbl -0x11c(%rbp),%edx
    2321:	0f b6 85 fb fe ff ff 	movzbl -0x105(%rbp),%eax
    2328:	38 c2                	cmp    %al,%dl
    232a:	0f 86 ac 9d 01 00    	jbe    1c0dc <main+0x1b882>
    2330:	0f b6 95 e4 fe ff ff 	movzbl -0x11c(%rbp),%edx
    2337:	0f b6 85 fc fe ff ff 	movzbl -0x104(%rbp),%eax
    233e:	38 c2                	cmp    %al,%dl
    2340:	0f 86 9c 9d 01 00    	jbe    1c0e2 <main+0x1b888>
    2346:	0f b6 95 e4 fe ff ff 	movzbl -0x11c(%rbp),%edx
    234d:	0f b6 85 fd fe ff ff 	movzbl -0x103(%rbp),%eax
    2354:	38 c2                	cmp    %al,%dl
    2356:	0f 86 8c 9d 01 00    	jbe    1c0e8 <main+0x1b88e>
    235c:	0f b6 95 e4 fe ff ff 	movzbl -0x11c(%rbp),%edx
    2363:	0f b6 85 fe fe ff ff 	movzbl -0x102(%rbp),%eax
    236a:	38 c2                	cmp    %al,%dl
    236c:	0f 86 7c 9d 01 00    	jbe    1c0ee <main+0x1b894>
    2372:	0f b6 95 e4 fe ff ff 	movzbl -0x11c(%rbp),%edx
    2379:	0f b6 85 ff fe ff ff 	movzbl -0x101(%rbp),%eax
    2380:	38 c2                	cmp    %al,%dl
    2382:	0f 86 6c 9d 01 00    	jbe    1c0f4 <main+0x1b89a>
    2388:	0f b6 95 e4 fe ff ff 	movzbl -0x11c(%rbp),%edx
    238f:	0f b6 85 00 ff ff ff 	movzbl -0x100(%rbp),%eax
    2396:	38 c2                	cmp    %al,%dl
    2398:	0f 86 5c 9d 01 00    	jbe    1c0fa <main+0x1b8a0>
    239e:	0f b6 95 e4 fe ff ff 	movzbl -0x11c(%rbp),%edx
    23a5:	0f b6 85 01 ff ff ff 	movzbl -0xff(%rbp),%eax
    23ac:	38 c2                	cmp    %al,%dl
    23ae:	0f 86 4c 9d 01 00    	jbe    1c100 <main+0x1b8a6>
    23b4:	0f b6 95 e4 fe ff ff 	movzbl -0x11c(%rbp),%edx
    23bb:	0f b6 85 02 ff ff ff 	movzbl -0xfe(%rbp),%eax
    23c2:	38 c2                	cmp    %al,%dl
    23c4:	0f 86 3c 9d 01 00    	jbe    1c106 <main+0x1b8ac>
    23ca:	0f b6 95 e4 fe ff ff 	movzbl -0x11c(%rbp),%edx
    23d1:	0f b6 85 03 ff ff ff 	movzbl -0xfd(%rbp),%eax
    23d8:	38 c2                	cmp    %al,%dl
    23da:	0f 86 2c 9d 01 00    	jbe    1c10c <main+0x1b8b2>
    23e0:	0f b6 95 e4 fe ff ff 	movzbl -0x11c(%rbp),%edx
    23e7:	0f b6 85 04 ff ff ff 	movzbl -0xfc(%rbp),%eax
    23ee:	38 c2                	cmp    %al,%dl
    23f0:	0f 86 1c 9d 01 00    	jbe    1c112 <main+0x1b8b8>
    23f6:	0f b6 95 e4 fe ff ff 	movzbl -0x11c(%rbp),%edx
    23fd:	0f b6 85 05 ff ff ff 	movzbl -0xfb(%rbp),%eax
    2404:	38 c2                	cmp    %al,%dl
    2406:	0f 86 0c 9d 01 00    	jbe    1c118 <main+0x1b8be>
    240c:	0f b6 95 e4 fe ff ff 	movzbl -0x11c(%rbp),%edx
    2413:	0f b6 85 06 ff ff ff 	movzbl -0xfa(%rbp),%eax
    241a:	38 c2                	cmp    %al,%dl
    241c:	0f 86 fc 9c 01 00    	jbe    1c11e <main+0x1b8c4>
    2422:	0f b6 95 e4 fe ff ff 	movzbl -0x11c(%rbp),%edx
    2429:	0f b6 85 07 ff ff ff 	movzbl -0xf9(%rbp),%eax
    2430:	38 c2                	cmp    %al,%dl
    2432:	0f 86 ec 9c 01 00    	jbe    1c124 <main+0x1b8ca>
    2438:	0f b6 95 e4 fe ff ff 	movzbl -0x11c(%rbp),%edx
    243f:	0f b6 85 08 ff ff ff 	movzbl -0xf8(%rbp),%eax
    2446:	38 c2                	cmp    %al,%dl
    2448:	0f 86 dc 9c 01 00    	jbe    1c12a <main+0x1b8d0>
    244e:	0f b6 95 e4 fe ff ff 	movzbl -0x11c(%rbp),%edx
    2455:	0f b6 85 09 ff ff ff 	movzbl -0xf7(%rbp),%eax
    245c:	38 c2                	cmp    %al,%dl
    245e:	0f 86 cc 9c 01 00    	jbe    1c130 <main+0x1b8d6>
    2464:	0f b6 95 e4 fe ff ff 	movzbl -0x11c(%rbp),%edx
    246b:	0f b6 85 0a ff ff ff 	movzbl -0xf6(%rbp),%eax
    2472:	38 c2                	cmp    %al,%dl
    2474:	0f 86 bc 9c 01 00    	jbe    1c136 <main+0x1b8dc>
    247a:	0f b6 95 e4 fe ff ff 	movzbl -0x11c(%rbp),%edx
    2481:	0f b6 85 0b ff ff ff 	movzbl -0xf5(%rbp),%eax
    2488:	38 c2                	cmp    %al,%dl
    248a:	0f 86 ac 9c 01 00    	jbe    1c13c <main+0x1b8e2>
    2490:	0f b6 95 e4 fe ff ff 	movzbl -0x11c(%rbp),%edx
    2497:	0f b6 85 0c ff ff ff 	movzbl -0xf4(%rbp),%eax
    249e:	38 c2                	cmp    %al,%dl
    24a0:	0f 86 9c 9c 01 00    	jbe    1c142 <main+0x1b8e8>
    24a6:	0f b6 95 e4 fe ff ff 	movzbl -0x11c(%rbp),%edx
    24ad:	0f b6 85 0d ff ff ff 	movzbl -0xf3(%rbp),%eax
    24b4:	38 c2                	cmp    %al,%dl
    24b6:	0f 86 8c 9c 01 00    	jbe    1c148 <main+0x1b8ee>
    24bc:	0f b6 95 e4 fe ff ff 	movzbl -0x11c(%rbp),%edx
    24c3:	0f b6 85 0e ff ff ff 	movzbl -0xf2(%rbp),%eax
    24ca:	38 c2                	cmp    %al,%dl
    24cc:	0f 86 7c 9c 01 00    	jbe    1c14e <main+0x1b8f4>
    24d2:	0f b6 95 e4 fe ff ff 	movzbl -0x11c(%rbp),%edx
    24d9:	0f b6 85 0f ff ff ff 	movzbl -0xf1(%rbp),%eax
    24e0:	38 c2                	cmp    %al,%dl
    24e2:	0f 86 6c 9c 01 00    	jbe    1c154 <main+0x1b8fa>
    24e8:	0f b6 95 e4 fe ff ff 	movzbl -0x11c(%rbp),%edx
    24ef:	0f b6 85 10 ff ff ff 	movzbl -0xf0(%rbp),%eax
    24f6:	38 c2                	cmp    %al,%dl
    24f8:	0f 86 5c 9c 01 00    	jbe    1c15a <main+0x1b900>
    24fe:	0f b6 95 e4 fe ff ff 	movzbl -0x11c(%rbp),%edx
    2505:	0f b6 85 11 ff ff ff 	movzbl -0xef(%rbp),%eax
    250c:	38 c2                	cmp    %al,%dl
    250e:	0f 86 4c 9c 01 00    	jbe    1c160 <main+0x1b906>
    2514:	0f b6 95 e4 fe ff ff 	movzbl -0x11c(%rbp),%edx
    251b:	0f b6 85 12 ff ff ff 	movzbl -0xee(%rbp),%eax
    2522:	38 c2                	cmp    %al,%dl
    2524:	0f 86 3c 9c 01 00    	jbe    1c166 <main+0x1b90c>
    252a:	0f b6 95 e4 fe ff ff 	movzbl -0x11c(%rbp),%edx
    2531:	0f b6 85 13 ff ff ff 	movzbl -0xed(%rbp),%eax
    2538:	38 c2                	cmp    %al,%dl
    253a:	0f 86 2c 9c 01 00    	jbe    1c16c <main+0x1b912>
    2540:	0f b6 95 e4 fe ff ff 	movzbl -0x11c(%rbp),%edx
    2547:	0f b6 85 14 ff ff ff 	movzbl -0xec(%rbp),%eax
    254e:	38 c2                	cmp    %al,%dl
    2550:	0f 86 1c 9c 01 00    	jbe    1c172 <main+0x1b918>
    2556:	0f b6 95 e4 fe ff ff 	movzbl -0x11c(%rbp),%edx
    255d:	0f b6 85 15 ff ff ff 	movzbl -0xeb(%rbp),%eax
    2564:	38 c2                	cmp    %al,%dl
    2566:	0f 86 0c 9c 01 00    	jbe    1c178 <main+0x1b91e>
    256c:	0f b6 95 e4 fe ff ff 	movzbl -0x11c(%rbp),%edx
    2573:	0f b6 85 16 ff ff ff 	movzbl -0xea(%rbp),%eax
    257a:	38 c2                	cmp    %al,%dl
    257c:	0f 86 fc 9b 01 00    	jbe    1c17e <main+0x1b924>
    2582:	0f b6 95 e4 fe ff ff 	movzbl -0x11c(%rbp),%edx
    2589:	0f b6 85 17 ff ff ff 	movzbl -0xe9(%rbp),%eax
    2590:	38 c2                	cmp    %al,%dl
    2592:	0f 86 ec 9b 01 00    	jbe    1c184 <main+0x1b92a>
    2598:	0f b6 95 e4 fe ff ff 	movzbl -0x11c(%rbp),%edx
    259f:	0f b6 85 18 ff ff ff 	movzbl -0xe8(%rbp),%eax
    25a6:	38 c2                	cmp    %al,%dl
    25a8:	0f 86 dc 9b 01 00    	jbe    1c18a <main+0x1b930>
    25ae:	0f b6 95 e4 fe ff ff 	movzbl -0x11c(%rbp),%edx
    25b5:	0f b6 85 19 ff ff ff 	movzbl -0xe7(%rbp),%eax
    25bc:	38 c2                	cmp    %al,%dl
    25be:	0f 86 cc 9b 01 00    	jbe    1c190 <main+0x1b936>
    25c4:	0f b6 95 e4 fe ff ff 	movzbl -0x11c(%rbp),%edx
    25cb:	0f b6 85 1a ff ff ff 	movzbl -0xe6(%rbp),%eax
    25d2:	38 c2                	cmp    %al,%dl
    25d4:	0f 86 bc 9b 01 00    	jbe    1c196 <main+0x1b93c>
    25da:	0f b6 95 e4 fe ff ff 	movzbl -0x11c(%rbp),%edx
    25e1:	0f b6 85 1b ff ff ff 	movzbl -0xe5(%rbp),%eax
    25e8:	38 c2                	cmp    %al,%dl
    25ea:	0f 86 ac 9b 01 00    	jbe    1c19c <main+0x1b942>
    25f0:	0f b6 95 e4 fe ff ff 	movzbl -0x11c(%rbp),%edx
    25f7:	0f b6 85 1c ff ff ff 	movzbl -0xe4(%rbp),%eax
    25fe:	38 c2                	cmp    %al,%dl
    2600:	0f 86 9c 9b 01 00    	jbe    1c1a2 <main+0x1b948>
    2606:	0f b6 95 e4 fe ff ff 	movzbl -0x11c(%rbp),%edx
    260d:	0f b6 85 1d ff ff ff 	movzbl -0xe3(%rbp),%eax
    2614:	38 c2                	cmp    %al,%dl
    2616:	0f 86 8c 9b 01 00    	jbe    1c1a8 <main+0x1b94e>
    261c:	0f b6 95 e4 fe ff ff 	movzbl -0x11c(%rbp),%edx
    2623:	0f b6 85 1e ff ff ff 	movzbl -0xe2(%rbp),%eax
    262a:	38 c2                	cmp    %al,%dl
    262c:	0f 86 7c 9b 01 00    	jbe    1c1ae <main+0x1b954>
    2632:	0f b6 95 e4 fe ff ff 	movzbl -0x11c(%rbp),%edx
    2639:	0f b6 85 1f ff ff ff 	movzbl -0xe1(%rbp),%eax
    2640:	38 c2                	cmp    %al,%dl
    2642:	0f 86 6c 9b 01 00    	jbe    1c1b4 <main+0x1b95a>
    2648:	0f b6 95 e4 fe ff ff 	movzbl -0x11c(%rbp),%edx
    264f:	0f b6 85 20 ff ff ff 	movzbl -0xe0(%rbp),%eax
    2656:	38 c2                	cmp    %al,%dl
    2658:	0f 86 5c 9b 01 00    	jbe    1c1ba <main+0x1b960>
    265e:	0f b6 95 e4 fe ff ff 	movzbl -0x11c(%rbp),%edx
    2665:	0f b6 85 21 ff ff ff 	movzbl -0xdf(%rbp),%eax
    266c:	38 c2                	cmp    %al,%dl
    266e:	0f 86 4c 9b 01 00    	jbe    1c1c0 <main+0x1b966>
    2674:	0f b6 95 e4 fe ff ff 	movzbl -0x11c(%rbp),%edx
    267b:	0f b6 85 22 ff ff ff 	movzbl -0xde(%rbp),%eax
    2682:	38 c2                	cmp    %al,%dl
    2684:	0f 86 3c 9b 01 00    	jbe    1c1c6 <main+0x1b96c>
    268a:	0f b6 95 e4 fe ff ff 	movzbl -0x11c(%rbp),%edx
    2691:	0f b6 85 23 ff ff ff 	movzbl -0xdd(%rbp),%eax
    2698:	38 c2                	cmp    %al,%dl
    269a:	0f 86 2c 9b 01 00    	jbe    1c1cc <main+0x1b972>
    26a0:	0f b6 95 e4 fe ff ff 	movzbl -0x11c(%rbp),%edx
    26a7:	0f b6 85 24 ff ff ff 	movzbl -0xdc(%rbp),%eax
    26ae:	38 c2                	cmp    %al,%dl
    26b0:	0f 86 1c 9b 01 00    	jbe    1c1d2 <main+0x1b978>
    26b6:	0f b6 95 e4 fe ff ff 	movzbl -0x11c(%rbp),%edx
    26bd:	0f b6 85 25 ff ff ff 	movzbl -0xdb(%rbp),%eax
    26c4:	38 c2                	cmp    %al,%dl
    26c6:	0f 86 0c 9b 01 00    	jbe    1c1d8 <main+0x1b97e>
    26cc:	0f b6 95 e4 fe ff ff 	movzbl -0x11c(%rbp),%edx
    26d3:	0f b6 85 26 ff ff ff 	movzbl -0xda(%rbp),%eax
    26da:	38 c2                	cmp    %al,%dl
    26dc:	0f 86 fc 9a 01 00    	jbe    1c1de <main+0x1b984>
    26e2:	0f b6 95 e4 fe ff ff 	movzbl -0x11c(%rbp),%edx
    26e9:	0f b6 85 27 ff ff ff 	movzbl -0xd9(%rbp),%eax
    26f0:	38 c2                	cmp    %al,%dl
    26f2:	0f 86 ec 9a 01 00    	jbe    1c1e4 <main+0x1b98a>
    26f8:	0f b6 95 e4 fe ff ff 	movzbl -0x11c(%rbp),%edx
    26ff:	0f b6 85 28 ff ff ff 	movzbl -0xd8(%rbp),%eax
    2706:	38 c2                	cmp    %al,%dl
    2708:	0f 83 dc 9a 01 00    	jae    1c1ea <main+0x1b990>
    270e:	0f b6 95 e5 fe ff ff 	movzbl -0x11b(%rbp),%edx
    2715:	0f b6 85 e0 fe ff ff 	movzbl -0x120(%rbp),%eax
    271c:	38 c2                	cmp    %al,%dl
    271e:	0f 86 cc 9a 01 00    	jbe    1c1f0 <main+0x1b996>
    2724:	0f b6 95 e5 fe ff ff 	movzbl -0x11b(%rbp),%edx
    272b:	0f b6 85 e1 fe ff ff 	movzbl -0x11f(%rbp),%eax
    2732:	38 c2                	cmp    %al,%dl
    2734:	0f 86 bc 9a 01 00    	jbe    1c1f6 <main+0x1b99c>
    273a:	0f b6 95 e5 fe ff ff 	movzbl -0x11b(%rbp),%edx
    2741:	0f b6 85 e2 fe ff ff 	movzbl -0x11e(%rbp),%eax
    2748:	38 c2                	cmp    %al,%dl
    274a:	0f 86 ac 9a 01 00    	jbe    1c1fc <main+0x1b9a2>
    2750:	0f b6 95 e5 fe ff ff 	movzbl -0x11b(%rbp),%edx
    2757:	0f b6 85 e3 fe ff ff 	movzbl -0x11d(%rbp),%eax
    275e:	38 c2                	cmp    %al,%dl
    2760:	0f 86 9c 9a 01 00    	jbe    1c202 <main+0x1b9a8>
    2766:	0f b6 95 e5 fe ff ff 	movzbl -0x11b(%rbp),%edx
    276d:	0f b6 85 e4 fe ff ff 	movzbl -0x11c(%rbp),%eax
    2774:	38 c2                	cmp    %al,%dl
    2776:	0f 83 8c 9a 01 00    	jae    1c208 <main+0x1b9ae>
    277c:	0f b6 95 e5 fe ff ff 	movzbl -0x11b(%rbp),%edx
    2783:	0f b6 85 e6 fe ff ff 	movzbl -0x11a(%rbp),%eax
    278a:	38 c2                	cmp    %al,%dl
    278c:	0f 86 7c 9a 01 00    	jbe    1c20e <main+0x1b9b4>
    2792:	0f b6 95 e5 fe ff ff 	movzbl -0x11b(%rbp),%edx
    2799:	0f b6 85 e7 fe ff ff 	movzbl -0x119(%rbp),%eax
    27a0:	38 c2                	cmp    %al,%dl
    27a2:	0f 86 6c 9a 01 00    	jbe    1c214 <main+0x1b9ba>
    27a8:	0f b6 95 e5 fe ff ff 	movzbl -0x11b(%rbp),%edx
    27af:	0f b6 85 e8 fe ff ff 	movzbl -0x118(%rbp),%eax
    27b6:	38 c2                	cmp    %al,%dl
    27b8:	0f 86 5c 9a 01 00    	jbe    1c21a <main+0x1b9c0>
    27be:	0f b6 95 e5 fe ff ff 	movzbl -0x11b(%rbp),%edx
    27c5:	0f b6 85 e9 fe ff ff 	movzbl -0x117(%rbp),%eax
    27cc:	38 c2                	cmp    %al,%dl
    27ce:	0f 83 4c 9a 01 00    	jae    1c220 <main+0x1b9c6>
    27d4:	0f b6 95 e5 fe ff ff 	movzbl -0x11b(%rbp),%edx
    27db:	0f b6 85 ea fe ff ff 	movzbl -0x116(%rbp),%eax
    27e2:	38 c2                	cmp    %al,%dl
    27e4:	0f 86 3c 9a 01 00    	jbe    1c226 <main+0x1b9cc>
    27ea:	0f b6 95 e5 fe ff ff 	movzbl -0x11b(%rbp),%edx
    27f1:	0f b6 85 eb fe ff ff 	movzbl -0x115(%rbp),%eax
    27f8:	38 c2                	cmp    %al,%dl
    27fa:	0f 86 2c 9a 01 00    	jbe    1c22c <main+0x1b9d2>
    2800:	0f b6 95 e5 fe ff ff 	movzbl -0x11b(%rbp),%edx
    2807:	0f b6 85 ec fe ff ff 	movzbl -0x114(%rbp),%eax
    280e:	38 c2                	cmp    %al,%dl
    2810:	0f 86 1c 9a 01 00    	jbe    1c232 <main+0x1b9d8>
    2816:	0f b6 95 e5 fe ff ff 	movzbl -0x11b(%rbp),%edx
    281d:	0f b6 85 ed fe ff ff 	movzbl -0x113(%rbp),%eax
    2824:	38 c2                	cmp    %al,%dl
    2826:	0f 86 0c 9a 01 00    	jbe    1c238 <main+0x1b9de>
    282c:	0f b6 95 e5 fe ff ff 	movzbl -0x11b(%rbp),%edx
    2833:	0f b6 85 ee fe ff ff 	movzbl -0x112(%rbp),%eax
    283a:	38 c2                	cmp    %al,%dl
    283c:	0f 86 fc 99 01 00    	jbe    1c23e <main+0x1b9e4>
    2842:	0f b6 95 e5 fe ff ff 	movzbl -0x11b(%rbp),%edx
    2849:	0f b6 85 ef fe ff ff 	movzbl -0x111(%rbp),%eax
    2850:	38 c2                	cmp    %al,%dl
    2852:	0f 86 ec 99 01 00    	jbe    1c244 <main+0x1b9ea>
    2858:	0f b6 95 e5 fe ff ff 	movzbl -0x11b(%rbp),%edx
    285f:	0f b6 85 f0 fe ff ff 	movzbl -0x110(%rbp),%eax
    2866:	38 c2                	cmp    %al,%dl
    2868:	0f 83 dc 99 01 00    	jae    1c24a <main+0x1b9f0>
    286e:	0f b6 95 e5 fe ff ff 	movzbl -0x11b(%rbp),%edx
    2875:	0f b6 85 f1 fe ff ff 	movzbl -0x10f(%rbp),%eax
    287c:	38 c2                	cmp    %al,%dl
    287e:	0f 86 cc 99 01 00    	jbe    1c250 <main+0x1b9f6>
    2884:	0f b6 95 e5 fe ff ff 	movzbl -0x11b(%rbp),%edx
    288b:	0f b6 85 f2 fe ff ff 	movzbl -0x10e(%rbp),%eax
    2892:	38 c2                	cmp    %al,%dl
    2894:	0f 86 bc 99 01 00    	jbe    1c256 <main+0x1b9fc>
    289a:	0f b6 95 e5 fe ff ff 	movzbl -0x11b(%rbp),%edx
    28a1:	0f b6 85 f3 fe ff ff 	movzbl -0x10d(%rbp),%eax
    28a8:	38 c2                	cmp    %al,%dl
    28aa:	0f 86 ac 99 01 00    	jbe    1c25c <main+0x1ba02>
    28b0:	0f b6 95 e5 fe ff ff 	movzbl -0x11b(%rbp),%edx
    28b7:	0f b6 85 f4 fe ff ff 	movzbl -0x10c(%rbp),%eax
    28be:	38 c2                	cmp    %al,%dl
    28c0:	0f 83 9c 99 01 00    	jae    1c262 <main+0x1ba08>
    28c6:	0f b6 95 e5 fe ff ff 	movzbl -0x11b(%rbp),%edx
    28cd:	0f b6 85 f5 fe ff ff 	movzbl -0x10b(%rbp),%eax
    28d4:	38 c2                	cmp    %al,%dl
    28d6:	0f 86 8c 99 01 00    	jbe    1c268 <main+0x1ba0e>
    28dc:	0f b6 95 e5 fe ff ff 	movzbl -0x11b(%rbp),%edx
    28e3:	0f b6 85 f6 fe ff ff 	movzbl -0x10a(%rbp),%eax
    28ea:	38 c2                	cmp    %al,%dl
    28ec:	0f 83 7c 99 01 00    	jae    1c26e <main+0x1ba14>
    28f2:	0f b6 95 e5 fe ff ff 	movzbl -0x11b(%rbp),%edx
    28f9:	0f b6 85 f7 fe ff ff 	movzbl -0x109(%rbp),%eax
    2900:	38 c2                	cmp    %al,%dl
    2902:	0f 86 6c 99 01 00    	jbe    1c274 <main+0x1ba1a>
    2908:	0f b6 95 e5 fe ff ff 	movzbl -0x11b(%rbp),%edx
    290f:	0f b6 85 f8 fe ff ff 	movzbl -0x108(%rbp),%eax
    2916:	38 c2                	cmp    %al,%dl
    2918:	0f 86 5c 99 01 00    	jbe    1c27a <main+0x1ba20>
    291e:	0f b6 95 e5 fe ff ff 	movzbl -0x11b(%rbp),%edx
    2925:	0f b6 85 f9 fe ff ff 	movzbl -0x107(%rbp),%eax
    292c:	38 c2                	cmp    %al,%dl
    292e:	0f 86 4c 99 01 00    	jbe    1c280 <main+0x1ba26>
    2934:	0f b6 95 e5 fe ff ff 	movzbl -0x11b(%rbp),%edx
    293b:	0f b6 85 fa fe ff ff 	movzbl -0x106(%rbp),%eax
    2942:	38 c2                	cmp    %al,%dl
    2944:	0f 86 3c 99 01 00    	jbe    1c286 <main+0x1ba2c>
    294a:	0f b6 95 e5 fe ff ff 	movzbl -0x11b(%rbp),%edx
    2951:	0f b6 85 fb fe ff ff 	movzbl -0x105(%rbp),%eax
    2958:	38 c2                	cmp    %al,%dl
    295a:	0f 86 2c 99 01 00    	jbe    1c28c <main+0x1ba32>
    2960:	0f b6 95 e5 fe ff ff 	movzbl -0x11b(%rbp),%edx
    2967:	0f b6 85 fc fe ff ff 	movzbl -0x104(%rbp),%eax
    296e:	38 c2                	cmp    %al,%dl
    2970:	0f 83 1c 99 01 00    	jae    1c292 <main+0x1ba38>
    2976:	0f b6 95 e5 fe ff ff 	movzbl -0x11b(%rbp),%edx
    297d:	0f b6 85 fd fe ff ff 	movzbl -0x103(%rbp),%eax
    2984:	38 c2                	cmp    %al,%dl
    2986:	0f 86 0c 99 01 00    	jbe    1c298 <main+0x1ba3e>
    298c:	0f b6 95 e5 fe ff ff 	movzbl -0x11b(%rbp),%edx
    2993:	0f b6 85 fe fe ff ff 	movzbl -0x102(%rbp),%eax
    299a:	38 c2                	cmp    %al,%dl
    299c:	0f 86 fc 98 01 00    	jbe    1c29e <main+0x1ba44>
    29a2:	0f b6 95 e5 fe ff ff 	movzbl -0x11b(%rbp),%edx
    29a9:	0f b6 85 00 ff ff ff 	movzbl -0x100(%rbp),%eax
    29b0:	38 c2                	cmp    %al,%dl
    29b2:	0f 86 ec 98 01 00    	jbe    1c2a4 <main+0x1ba4a>
    29b8:	0f b6 95 e5 fe ff ff 	movzbl -0x11b(%rbp),%edx
    29bf:	0f b6 85 01 ff ff ff 	movzbl -0xff(%rbp),%eax
    29c6:	38 c2                	cmp    %al,%dl
    29c8:	0f 86 dc 98 01 00    	jbe    1c2aa <main+0x1ba50>
    29ce:	0f b6 95 e5 fe ff ff 	movzbl -0x11b(%rbp),%edx
    29d5:	0f b6 85 02 ff ff ff 	movzbl -0xfe(%rbp),%eax
    29dc:	38 c2                	cmp    %al,%dl
    29de:	0f 86 cc 98 01 00    	jbe    1c2b0 <main+0x1ba56>
    29e4:	0f b6 95 e5 fe ff ff 	movzbl -0x11b(%rbp),%edx
    29eb:	0f b6 85 03 ff ff ff 	movzbl -0xfd(%rbp),%eax
    29f2:	38 c2                	cmp    %al,%dl
    29f4:	0f 86 bc 98 01 00    	jbe    1c2b6 <main+0x1ba5c>
    29fa:	0f b6 95 e5 fe ff ff 	movzbl -0x11b(%rbp),%edx
    2a01:	0f b6 85 04 ff ff ff 	movzbl -0xfc(%rbp),%eax
    2a08:	38 c2                	cmp    %al,%dl
    2a0a:	0f 83 ac 98 01 00    	jae    1c2bc <main+0x1ba62>
    2a10:	0f b6 95 e5 fe ff ff 	movzbl -0x11b(%rbp),%edx
    2a17:	0f b6 85 05 ff ff ff 	movzbl -0xfb(%rbp),%eax
    2a1e:	38 c2                	cmp    %al,%dl
    2a20:	0f 83 9c 98 01 00    	jae    1c2c2 <main+0x1ba68>
    2a26:	0f b6 95 e5 fe ff ff 	movzbl -0x11b(%rbp),%edx
    2a2d:	0f b6 85 06 ff ff ff 	movzbl -0xfa(%rbp),%eax
    2a34:	38 c2                	cmp    %al,%dl
    2a36:	0f 86 8c 98 01 00    	jbe    1c2c8 <main+0x1ba6e>
    2a3c:	0f b6 95 e5 fe ff ff 	movzbl -0x11b(%rbp),%edx
    2a43:	0f b6 85 07 ff ff ff 	movzbl -0xf9(%rbp),%eax
    2a4a:	38 c2                	cmp    %al,%dl
    2a4c:	0f 86 7c 98 01 00    	jbe    1c2ce <main+0x1ba74>
    2a52:	0f b6 95 e5 fe ff ff 	movzbl -0x11b(%rbp),%edx
    2a59:	0f b6 85 08 ff ff ff 	movzbl -0xf8(%rbp),%eax
    2a60:	38 c2                	cmp    %al,%dl
    2a62:	0f 86 6c 98 01 00    	jbe    1c2d4 <main+0x1ba7a>
    2a68:	0f b6 95 e5 fe ff ff 	movzbl -0x11b(%rbp),%edx
    2a6f:	0f b6 85 09 ff ff ff 	movzbl -0xf7(%rbp),%eax
    2a76:	38 c2                	cmp    %al,%dl
    2a78:	0f 86 5c 98 01 00    	jbe    1c2da <main+0x1ba80>
    2a7e:	0f b6 95 e5 fe ff ff 	movzbl -0x11b(%rbp),%edx
    2a85:	0f b6 85 0a ff ff ff 	movzbl -0xf6(%rbp),%eax
    2a8c:	38 c2                	cmp    %al,%dl
    2a8e:	0f 86 4c 98 01 00    	jbe    1c2e0 <main+0x1ba86>
    2a94:	0f b6 95 e5 fe ff ff 	movzbl -0x11b(%rbp),%edx
    2a9b:	0f b6 85 0b ff ff ff 	movzbl -0xf5(%rbp),%eax
    2aa2:	38 c2                	cmp    %al,%dl
    2aa4:	0f 86 3c 98 01 00    	jbe    1c2e6 <main+0x1ba8c>
    2aaa:	0f b6 95 e5 fe ff ff 	movzbl -0x11b(%rbp),%edx
    2ab1:	0f b6 85 0c ff ff ff 	movzbl -0xf4(%rbp),%eax
    2ab8:	38 c2                	cmp    %al,%dl
    2aba:	0f 86 2c 98 01 00    	jbe    1c2ec <main+0x1ba92>
    2ac0:	0f b6 95 e5 fe ff ff 	movzbl -0x11b(%rbp),%edx
    2ac7:	0f b6 85 0d ff ff ff 	movzbl -0xf3(%rbp),%eax
    2ace:	38 c2                	cmp    %al,%dl
    2ad0:	0f 86 1c 98 01 00    	jbe    1c2f2 <main+0x1ba98>
    2ad6:	0f b6 95 e5 fe ff ff 	movzbl -0x11b(%rbp),%edx
    2add:	0f b6 85 0e ff ff ff 	movzbl -0xf2(%rbp),%eax
    2ae4:	38 c2                	cmp    %al,%dl
    2ae6:	0f 86 0c 98 01 00    	jbe    1c2f8 <main+0x1ba9e>
    2aec:	0f b6 95 e5 fe ff ff 	movzbl -0x11b(%rbp),%edx
    2af3:	0f b6 85 0f ff ff ff 	movzbl -0xf1(%rbp),%eax
    2afa:	38 c2                	cmp    %al,%dl
    2afc:	0f 86 fc 97 01 00    	jbe    1c2fe <main+0x1baa4>
    2b02:	0f b6 95 e5 fe ff ff 	movzbl -0x11b(%rbp),%edx
    2b09:	0f b6 85 10 ff ff ff 	movzbl -0xf0(%rbp),%eax
    2b10:	38 c2                	cmp    %al,%dl
    2b12:	0f 86 ec 97 01 00    	jbe    1c304 <main+0x1baaa>
    2b18:	0f b6 95 e5 fe ff ff 	movzbl -0x11b(%rbp),%edx
    2b1f:	0f b6 85 11 ff ff ff 	movzbl -0xef(%rbp),%eax
    2b26:	38 c2                	cmp    %al,%dl
    2b28:	0f 86 dc 97 01 00    	jbe    1c30a <main+0x1bab0>
    2b2e:	0f b6 95 e5 fe ff ff 	movzbl -0x11b(%rbp),%edx
    2b35:	0f b6 85 12 ff ff ff 	movzbl -0xee(%rbp),%eax
    2b3c:	38 c2                	cmp    %al,%dl
    2b3e:	0f 86 cc 97 01 00    	jbe    1c310 <main+0x1bab6>
    2b44:	0f b6 95 e5 fe ff ff 	movzbl -0x11b(%rbp),%edx
    2b4b:	0f b6 85 13 ff ff ff 	movzbl -0xed(%rbp),%eax
    2b52:	38 c2                	cmp    %al,%dl
    2b54:	0f 86 bc 97 01 00    	jbe    1c316 <main+0x1babc>
    2b5a:	0f b6 95 e5 fe ff ff 	movzbl -0x11b(%rbp),%edx
    2b61:	0f b6 85 14 ff ff ff 	movzbl -0xec(%rbp),%eax
    2b68:	38 c2                	cmp    %al,%dl
    2b6a:	0f 86 ac 97 01 00    	jbe    1c31c <main+0x1bac2>
    2b70:	0f b6 95 e5 fe ff ff 	movzbl -0x11b(%rbp),%edx
    2b77:	0f b6 85 15 ff ff ff 	movzbl -0xeb(%rbp),%eax
    2b7e:	38 c2                	cmp    %al,%dl
    2b80:	0f 83 9c 97 01 00    	jae    1c322 <main+0x1bac8>
    2b86:	0f b6 95 e5 fe ff ff 	movzbl -0x11b(%rbp),%edx
    2b8d:	0f b6 85 17 ff ff ff 	movzbl -0xe9(%rbp),%eax
    2b94:	38 c2                	cmp    %al,%dl
    2b96:	0f 86 8c 97 01 00    	jbe    1c328 <main+0x1bace>
    2b9c:	0f b6 95 e5 fe ff ff 	movzbl -0x11b(%rbp),%edx
    2ba3:	0f b6 85 18 ff ff ff 	movzbl -0xe8(%rbp),%eax
    2baa:	38 c2                	cmp    %al,%dl
    2bac:	0f 86 7c 97 01 00    	jbe    1c32e <main+0x1bad4>
    2bb2:	0f b6 95 e5 fe ff ff 	movzbl -0x11b(%rbp),%edx
    2bb9:	0f b6 85 19 ff ff ff 	movzbl -0xe7(%rbp),%eax
    2bc0:	38 c2                	cmp    %al,%dl
    2bc2:	0f 83 6c 97 01 00    	jae    1c334 <main+0x1bada>
    2bc8:	0f b6 95 e5 fe ff ff 	movzbl -0x11b(%rbp),%edx
    2bcf:	0f b6 85 1b ff ff ff 	movzbl -0xe5(%rbp),%eax
    2bd6:	38 c2                	cmp    %al,%dl
    2bd8:	0f 86 5c 97 01 00    	jbe    1c33a <main+0x1bae0>
    2bde:	0f b6 95 e5 fe ff ff 	movzbl -0x11b(%rbp),%edx
    2be5:	0f b6 85 1c ff ff ff 	movzbl -0xe4(%rbp),%eax
    2bec:	38 c2                	cmp    %al,%dl
    2bee:	0f 86 4c 97 01 00    	jbe    1c340 <main+0x1bae6>
    2bf4:	0f b6 95 e5 fe ff ff 	movzbl -0x11b(%rbp),%edx
    2bfb:	0f b6 85 1d ff ff ff 	movzbl -0xe3(%rbp),%eax
    2c02:	38 c2                	cmp    %al,%dl
    2c04:	0f 86 3c 97 01 00    	jbe    1c346 <main+0x1baec>
    2c0a:	0f b6 95 e5 fe ff ff 	movzbl -0x11b(%rbp),%edx
    2c11:	0f b6 85 1f ff ff ff 	movzbl -0xe1(%rbp),%eax
    2c18:	38 c2                	cmp    %al,%dl
    2c1a:	0f 86 2c 97 01 00    	jbe    1c34c <main+0x1baf2>
    2c20:	0f b6 95 e5 fe ff ff 	movzbl -0x11b(%rbp),%edx
    2c27:	0f b6 85 20 ff ff ff 	movzbl -0xe0(%rbp),%eax
    2c2e:	38 c2                	cmp    %al,%dl
    2c30:	0f 86 1c 97 01 00    	jbe    1c352 <main+0x1baf8>
    2c36:	0f b6 95 e5 fe ff ff 	movzbl -0x11b(%rbp),%edx
    2c3d:	0f b6 85 21 ff ff ff 	movzbl -0xdf(%rbp),%eax
    2c44:	38 c2                	cmp    %al,%dl
    2c46:	0f 86 0c 97 01 00    	jbe    1c358 <main+0x1bafe>
    2c4c:	0f b6 95 e5 fe ff ff 	movzbl -0x11b(%rbp),%edx
    2c53:	0f b6 85 22 ff ff ff 	movzbl -0xde(%rbp),%eax
    2c5a:	38 c2                	cmp    %al,%dl
    2c5c:	0f 86 fc 96 01 00    	jbe    1c35e <main+0x1bb04>
    2c62:	0f b6 95 e5 fe ff ff 	movzbl -0x11b(%rbp),%edx
    2c69:	0f b6 85 23 ff ff ff 	movzbl -0xdd(%rbp),%eax
    2c70:	38 c2                	cmp    %al,%dl
    2c72:	0f 86 ec 96 01 00    	jbe    1c364 <main+0x1bb0a>
    2c78:	0f b6 95 e5 fe ff ff 	movzbl -0x11b(%rbp),%edx
    2c7f:	0f b6 85 24 ff ff ff 	movzbl -0xdc(%rbp),%eax
    2c86:	38 c2                	cmp    %al,%dl
    2c88:	0f 83 dc 96 01 00    	jae    1c36a <main+0x1bb10>
    2c8e:	0f b6 95 e5 fe ff ff 	movzbl -0x11b(%rbp),%edx
    2c95:	0f b6 85 25 ff ff ff 	movzbl -0xdb(%rbp),%eax
    2c9c:	38 c2                	cmp    %al,%dl
    2c9e:	0f 86 cc 96 01 00    	jbe    1c370 <main+0x1bb16>
    2ca4:	0f b6 95 e5 fe ff ff 	movzbl -0x11b(%rbp),%edx
    2cab:	0f b6 85 26 ff ff ff 	movzbl -0xda(%rbp),%eax
    2cb2:	38 c2                	cmp    %al,%dl
    2cb4:	0f 86 bc 96 01 00    	jbe    1c376 <main+0x1bb1c>
    2cba:	0f b6 95 e5 fe ff ff 	movzbl -0x11b(%rbp),%edx
    2cc1:	0f b6 85 27 ff ff ff 	movzbl -0xd9(%rbp),%eax
    2cc8:	38 c2                	cmp    %al,%dl
    2cca:	0f 86 ac 96 01 00    	jbe    1c37c <main+0x1bb22>
    2cd0:	0f b6 95 e5 fe ff ff 	movzbl -0x11b(%rbp),%edx
    2cd7:	0f b6 85 28 ff ff ff 	movzbl -0xd8(%rbp),%eax
    2cde:	38 c2                	cmp    %al,%dl
    2ce0:	0f 83 9c 96 01 00    	jae    1c382 <main+0x1bb28>
    2ce6:	0f b6 95 e6 fe ff ff 	movzbl -0x11a(%rbp),%edx
    2ced:	0f b6 85 e0 fe ff ff 	movzbl -0x120(%rbp),%eax
    2cf4:	38 c2                	cmp    %al,%dl
    2cf6:	0f 86 8c 96 01 00    	jbe    1c388 <main+0x1bb2e>
    2cfc:	0f b6 95 e6 fe ff ff 	movzbl -0x11a(%rbp),%edx
    2d03:	0f b6 85 e1 fe ff ff 	movzbl -0x11f(%rbp),%eax
    2d0a:	38 c2                	cmp    %al,%dl
    2d0c:	0f 83 7c 96 01 00    	jae    1c38e <main+0x1bb34>
    2d12:	0f b6 95 e6 fe ff ff 	movzbl -0x11a(%rbp),%edx
    2d19:	0f b6 85 e2 fe ff ff 	movzbl -0x11e(%rbp),%eax
    2d20:	38 c2                	cmp    %al,%dl
    2d22:	0f 86 6c 96 01 00    	jbe    1c394 <main+0x1bb3a>
    2d28:	0f b6 95 e6 fe ff ff 	movzbl -0x11a(%rbp),%edx
    2d2f:	0f b6 85 e3 fe ff ff 	movzbl -0x11d(%rbp),%eax
    2d36:	38 c2                	cmp    %al,%dl
    2d38:	0f 86 5c 96 01 00    	jbe    1c39a <main+0x1bb40>
    2d3e:	0f b6 95 e6 fe ff ff 	movzbl -0x11a(%rbp),%edx
    2d45:	0f b6 85 e4 fe ff ff 	movzbl -0x11c(%rbp),%eax
    2d4c:	38 c2                	cmp    %al,%dl
    2d4e:	0f 83 4c 96 01 00    	jae    1c3a0 <main+0x1bb46>
    2d54:	0f b6 95 e6 fe ff ff 	movzbl -0x11a(%rbp),%edx
    2d5b:	0f b6 85 e5 fe ff ff 	movzbl -0x11b(%rbp),%eax
    2d62:	38 c2                	cmp    %al,%dl
    2d64:	0f 83 3c 96 01 00    	jae    1c3a6 <main+0x1bb4c>
    2d6a:	0f b6 95 e6 fe ff ff 	movzbl -0x11a(%rbp),%edx
    2d71:	0f b6 85 e7 fe ff ff 	movzbl -0x119(%rbp),%eax
    2d78:	38 c2                	cmp    %al,%dl
    2d7a:	0f 86 2c 96 01 00    	jbe    1c3ac <main+0x1bb52>
    2d80:	0f b6 95 e6 fe ff ff 	movzbl -0x11a(%rbp),%edx
    2d87:	0f b6 85 e8 fe ff ff 	movzbl -0x118(%rbp),%eax
    2d8e:	38 c2                	cmp    %al,%dl
    2d90:	0f 83 1c 96 01 00    	jae    1c3b2 <main+0x1bb58>
    2d96:	0f b6 95 e6 fe ff ff 	movzbl -0x11a(%rbp),%edx
    2d9d:	0f b6 85 e9 fe ff ff 	movzbl -0x117(%rbp),%eax
    2da4:	38 c2                	cmp    %al,%dl
    2da6:	0f 83 0c 96 01 00    	jae    1c3b8 <main+0x1bb5e>
    2dac:	0f b6 95 e6 fe ff ff 	movzbl -0x11a(%rbp),%edx
    2db3:	0f b6 85 ea fe ff ff 	movzbl -0x116(%rbp),%eax
    2dba:	38 c2                	cmp    %al,%dl
    2dbc:	0f 83 fc 95 01 00    	jae    1c3be <main+0x1bb64>
    2dc2:	0f b6 95 e6 fe ff ff 	movzbl -0x11a(%rbp),%edx
    2dc9:	0f b6 85 eb fe ff ff 	movzbl -0x115(%rbp),%eax
    2dd0:	38 c2                	cmp    %al,%dl
    2dd2:	0f 86 ec 95 01 00    	jbe    1c3c4 <main+0x1bb6a>
    2dd8:	0f b6 95 e6 fe ff ff 	movzbl -0x11a(%rbp),%edx
    2ddf:	0f b6 85 ec fe ff ff 	movzbl -0x114(%rbp),%eax
    2de6:	38 c2                	cmp    %al,%dl
    2de8:	0f 83 dc 95 01 00    	jae    1c3ca <main+0x1bb70>
    2dee:	0f b6 95 e6 fe ff ff 	movzbl -0x11a(%rbp),%edx
    2df5:	0f b6 85 ed fe ff ff 	movzbl -0x113(%rbp),%eax
    2dfc:	38 c2                	cmp    %al,%dl
    2dfe:	0f 86 cc 95 01 00    	jbe    1c3d0 <main+0x1bb76>
    2e04:	0f b6 95 e6 fe ff ff 	movzbl -0x11a(%rbp),%edx
    2e0b:	0f b6 85 ee fe ff ff 	movzbl -0x112(%rbp),%eax
    2e12:	38 c2                	cmp    %al,%dl
    2e14:	0f 83 bc 95 01 00    	jae    1c3d6 <main+0x1bb7c>
    2e1a:	0f b6 95 e6 fe ff ff 	movzbl -0x11a(%rbp),%edx
    2e21:	0f b6 85 ef fe ff ff 	movzbl -0x111(%rbp),%eax
    2e28:	38 c2                	cmp    %al,%dl
    2e2a:	0f 83 ac 95 01 00    	jae    1c3dc <main+0x1bb82>
    2e30:	0f b6 95 e6 fe ff ff 	movzbl -0x11a(%rbp),%edx
    2e37:	0f b6 85 f0 fe ff ff 	movzbl -0x110(%rbp),%eax
    2e3e:	38 c2                	cmp    %al,%dl
    2e40:	0f 83 9c 95 01 00    	jae    1c3e2 <main+0x1bb88>
    2e46:	0f b6 95 e6 fe ff ff 	movzbl -0x11a(%rbp),%edx
    2e4d:	0f b6 85 f1 fe ff ff 	movzbl -0x10f(%rbp),%eax
    2e54:	38 c2                	cmp    %al,%dl
    2e56:	0f 83 8c 95 01 00    	jae    1c3e8 <main+0x1bb8e>
    2e5c:	0f b6 95 e6 fe ff ff 	movzbl -0x11a(%rbp),%edx
    2e63:	0f b6 85 f2 fe ff ff 	movzbl -0x10e(%rbp),%eax
    2e6a:	38 c2                	cmp    %al,%dl
    2e6c:	0f 86 7c 95 01 00    	jbe    1c3ee <main+0x1bb94>
    2e72:	0f b6 95 e6 fe ff ff 	movzbl -0x11a(%rbp),%edx
    2e79:	0f b6 85 f3 fe ff ff 	movzbl -0x10d(%rbp),%eax
    2e80:	38 c2                	cmp    %al,%dl
    2e82:	0f 83 6c 95 01 00    	jae    1c3f4 <main+0x1bb9a>
    2e88:	0f b6 95 e6 fe ff ff 	movzbl -0x11a(%rbp),%edx
    2e8f:	0f b6 85 f4 fe ff ff 	movzbl -0x10c(%rbp),%eax
    2e96:	38 c2                	cmp    %al,%dl
    2e98:	0f 83 5c 95 01 00    	jae    1c3fa <main+0x1bba0>
    2e9e:	0f b6 95 e6 fe ff ff 	movzbl -0x11a(%rbp),%edx
    2ea5:	0f b6 85 f5 fe ff ff 	movzbl -0x10b(%rbp),%eax
    2eac:	38 c2                	cmp    %al,%dl
    2eae:	0f 83 4c 95 01 00    	jae    1c400 <main+0x1bba6>
    2eb4:	0f b6 95 e6 fe ff ff 	movzbl -0x11a(%rbp),%edx
    2ebb:	0f b6 85 f6 fe ff ff 	movzbl -0x10a(%rbp),%eax
    2ec2:	38 c2                	cmp    %al,%dl
    2ec4:	0f 83 3c 95 01 00    	jae    1c406 <main+0x1bbac>
    2eca:	0f b6 95 e6 fe ff ff 	movzbl -0x11a(%rbp),%edx
    2ed1:	0f b6 85 f7 fe ff ff 	movzbl -0x109(%rbp),%eax
    2ed8:	38 c2                	cmp    %al,%dl
    2eda:	0f 83 2c 95 01 00    	jae    1c40c <main+0x1bbb2>
    2ee0:	0f b6 95 e6 fe ff ff 	movzbl -0x11a(%rbp),%edx
    2ee7:	0f b6 85 f8 fe ff ff 	movzbl -0x108(%rbp),%eax
    2eee:	38 c2                	cmp    %al,%dl
    2ef0:	0f 83 1c 95 01 00    	jae    1c412 <main+0x1bbb8>
    2ef6:	0f b6 95 e6 fe ff ff 	movzbl -0x11a(%rbp),%edx
    2efd:	0f b6 85 f9 fe ff ff 	movzbl -0x107(%rbp),%eax
    2f04:	38 c2                	cmp    %al,%dl
    2f06:	0f 86 0c 95 01 00    	jbe    1c418 <main+0x1bbbe>
    2f0c:	0f b6 95 e6 fe ff ff 	movzbl -0x11a(%rbp),%edx
    2f13:	0f b6 85 fa fe ff ff 	movzbl -0x106(%rbp),%eax
    2f1a:	38 c2                	cmp    %al,%dl
    2f1c:	0f 86 fc 94 01 00    	jbe    1c41e <main+0x1bbc4>
    2f22:	0f b6 95 e6 fe ff ff 	movzbl -0x11a(%rbp),%edx
    2f29:	0f b6 85 fb fe ff ff 	movzbl -0x105(%rbp),%eax
    2f30:	38 c2                	cmp    %al,%dl
    2f32:	0f 83 ec 94 01 00    	jae    1c424 <main+0x1bbca>
    2f38:	0f b6 95 e6 fe ff ff 	movzbl -0x11a(%rbp),%edx
    2f3f:	0f b6 85 fc fe ff ff 	movzbl -0x104(%rbp),%eax
    2f46:	38 c2                	cmp    %al,%dl
    2f48:	0f 83 dc 94 01 00    	jae    1c42a <main+0x1bbd0>
    2f4e:	0f b6 95 e6 fe ff ff 	movzbl -0x11a(%rbp),%edx
    2f55:	0f b6 85 fd fe ff ff 	movzbl -0x103(%rbp),%eax
    2f5c:	38 c2                	cmp    %al,%dl
    2f5e:	0f 86 cc 94 01 00    	jbe    1c430 <main+0x1bbd6>
    2f64:	0f b6 95 e6 fe ff ff 	movzbl -0x11a(%rbp),%edx
    2f6b:	0f b6 85 fe fe ff ff 	movzbl -0x102(%rbp),%eax
    2f72:	38 c2                	cmp    %al,%dl
    2f74:	0f 83 bc 94 01 00    	jae    1c436 <main+0x1bbdc>
    2f7a:	0f b6 95 e6 fe ff ff 	movzbl -0x11a(%rbp),%edx
    2f81:	0f b6 85 ff fe ff ff 	movzbl -0x101(%rbp),%eax
    2f88:	38 c2                	cmp    %al,%dl
    2f8a:	0f 83 ac 94 01 00    	jae    1c43c <main+0x1bbe2>
    2f90:	0f b6 95 e6 fe ff ff 	movzbl -0x11a(%rbp),%edx
    2f97:	0f b6 85 01 ff ff ff 	movzbl -0xff(%rbp),%eax
    2f9e:	38 c2                	cmp    %al,%dl
    2fa0:	0f 86 9c 94 01 00    	jbe    1c442 <main+0x1bbe8>
    2fa6:	0f b6 95 e6 fe ff ff 	movzbl -0x11a(%rbp),%edx
    2fad:	0f b6 85 02 ff ff ff 	movzbl -0xfe(%rbp),%eax
    2fb4:	38 c2                	cmp    %al,%dl
    2fb6:	0f 83 8c 94 01 00    	jae    1c448 <main+0x1bbee>
    2fbc:	0f b6 95 e6 fe ff ff 	movzbl -0x11a(%rbp),%edx
    2fc3:	0f b6 85 03 ff ff ff 	movzbl -0xfd(%rbp),%eax
    2fca:	38 c2                	cmp    %al,%dl
    2fcc:	0f 86 7c 94 01 00    	jbe    1c44e <main+0x1bbf4>
    2fd2:	0f b6 95 e6 fe ff ff 	movzbl -0x11a(%rbp),%edx
    2fd9:	0f b6 85 04 ff ff ff 	movzbl -0xfc(%rbp),%eax
    2fe0:	38 c2                	cmp    %al,%dl
    2fe2:	0f 83 6c 94 01 00    	jae    1c454 <main+0x1bbfa>
    2fe8:	0f b6 95 e6 fe ff ff 	movzbl -0x11a(%rbp),%edx
    2fef:	0f b6 85 05 ff ff ff 	movzbl -0xfb(%rbp),%eax
    2ff6:	38 c2                	cmp    %al,%dl
    2ff8:	0f 83 5c 94 01 00    	jae    1c45a <main+0x1bc00>
    2ffe:	0f b6 95 e6 fe ff ff 	movzbl -0x11a(%rbp),%edx
    3005:	0f b6 85 06 ff ff ff 	movzbl -0xfa(%rbp),%eax
    300c:	38 c2                	cmp    %al,%dl
    300e:	0f 86 4c 94 01 00    	jbe    1c460 <main+0x1bc06>
    3014:	0f b6 95 e6 fe ff ff 	movzbl -0x11a(%rbp),%edx
    301b:	0f b6 85 07 ff ff ff 	movzbl -0xf9(%rbp),%eax
    3022:	38 c2                	cmp    %al,%dl
    3024:	0f 83 3c 94 01 00    	jae    1c466 <main+0x1bc0c>
    302a:	0f b6 95 e6 fe ff ff 	movzbl -0x11a(%rbp),%edx
    3031:	0f b6 85 08 ff ff ff 	movzbl -0xf8(%rbp),%eax
    3038:	38 c2                	cmp    %al,%dl
    303a:	0f 86 2c 94 01 00    	jbe    1c46c <main+0x1bc12>
    3040:	0f b6 95 e6 fe ff ff 	movzbl -0x11a(%rbp),%edx
    3047:	0f b6 85 09 ff ff ff 	movzbl -0xf7(%rbp),%eax
    304e:	38 c2                	cmp    %al,%dl
    3050:	0f 86 1c 94 01 00    	jbe    1c472 <main+0x1bc18>
    3056:	0f b6 95 e6 fe ff ff 	movzbl -0x11a(%rbp),%edx
    305d:	0f b6 85 0a ff ff ff 	movzbl -0xf6(%rbp),%eax
    3064:	38 c2                	cmp    %al,%dl
    3066:	0f 83 0c 94 01 00    	jae    1c478 <main+0x1bc1e>
    306c:	0f b6 95 e6 fe ff ff 	movzbl -0x11a(%rbp),%edx
    3073:	0f b6 85 0b ff ff ff 	movzbl -0xf5(%rbp),%eax
    307a:	38 c2                	cmp    %al,%dl
    307c:	0f 86 fc 93 01 00    	jbe    1c47e <main+0x1bc24>
    3082:	0f b6 95 e6 fe ff ff 	movzbl -0x11a(%rbp),%edx
    3089:	0f b6 85 0c ff ff ff 	movzbl -0xf4(%rbp),%eax
    3090:	38 c2                	cmp    %al,%dl
    3092:	0f 83 ec 93 01 00    	jae    1c484 <main+0x1bc2a>
    3098:	0f b6 95 e6 fe ff ff 	movzbl -0x11a(%rbp),%edx
    309f:	0f b6 85 0d ff ff ff 	movzbl -0xf3(%rbp),%eax
    30a6:	38 c2                	cmp    %al,%dl
    30a8:	0f 86 dc 93 01 00    	jbe    1c48a <main+0x1bc30>
    30ae:	0f b6 95 e6 fe ff ff 	movzbl -0x11a(%rbp),%edx
    30b5:	0f b6 85 0e ff ff ff 	movzbl -0xf2(%rbp),%eax
    30bc:	38 c2                	cmp    %al,%dl
    30be:	0f 86 cc 93 01 00    	jbe    1c490 <main+0x1bc36>
    30c4:	0f b6 95 e6 fe ff ff 	movzbl -0x11a(%rbp),%edx
    30cb:	0f b6 85 0f ff ff ff 	movzbl -0xf1(%rbp),%eax
    30d2:	38 c2                	cmp    %al,%dl
    30d4:	0f 83 bc 93 01 00    	jae    1c496 <main+0x1bc3c>
    30da:	0f b6 95 e6 fe ff ff 	movzbl -0x11a(%rbp),%edx
    30e1:	0f b6 85 10 ff ff ff 	movzbl -0xf0(%rbp),%eax
    30e8:	38 c2                	cmp    %al,%dl
    30ea:	0f 83 ac 93 01 00    	jae    1c49c <main+0x1bc42>
    30f0:	0f b6 95 e6 fe ff ff 	movzbl -0x11a(%rbp),%edx
    30f7:	0f b6 85 11 ff ff ff 	movzbl -0xef(%rbp),%eax
    30fe:	38 c2                	cmp    %al,%dl
    3100:	0f 86 9c 93 01 00    	jbe    1c4a2 <main+0x1bc48>
    3106:	0f b6 95 e6 fe ff ff 	movzbl -0x11a(%rbp),%edx
    310d:	0f b6 85 12 ff ff ff 	movzbl -0xee(%rbp),%eax
    3114:	38 c2                	cmp    %al,%dl
    3116:	0f 86 8c 93 01 00    	jbe    1c4a8 <main+0x1bc4e>
    311c:	0f b6 95 e6 fe ff ff 	movzbl -0x11a(%rbp),%edx
    3123:	0f b6 85 14 ff ff ff 	movzbl -0xec(%rbp),%eax
    312a:	38 c2                	cmp    %al,%dl
    312c:	0f 83 7c 93 01 00    	jae    1c4ae <main+0x1bc54>
    3132:	0f b6 95 e6 fe ff ff 	movzbl -0x11a(%rbp),%edx
    3139:	0f b6 85 15 ff ff ff 	movzbl -0xeb(%rbp),%eax
    3140:	38 c2                	cmp    %al,%dl
    3142:	0f 83 6c 93 01 00    	jae    1c4b4 <main+0x1bc5a>
    3148:	0f b6 95 e6 fe ff ff 	movzbl -0x11a(%rbp),%edx
    314f:	0f b6 85 16 ff ff ff 	movzbl -0xea(%rbp),%eax
    3156:	38 c2                	cmp    %al,%dl
    3158:	0f 83 5c 93 01 00    	jae    1c4ba <main+0x1bc60>
    315e:	0f b6 95 e6 fe ff ff 	movzbl -0x11a(%rbp),%edx
    3165:	0f b6 85 17 ff ff ff 	movzbl -0xe9(%rbp),%eax
    316c:	38 c2                	cmp    %al,%dl
    316e:	0f 83 4c 93 01 00    	jae    1c4c0 <main+0x1bc66>
    3174:	0f b6 95 e6 fe ff ff 	movzbl -0x11a(%rbp),%edx
    317b:	0f b6 85 18 ff ff ff 	movzbl -0xe8(%rbp),%eax
    3182:	38 c2                	cmp    %al,%dl
    3184:	0f 86 3c 93 01 00    	jbe    1c4c6 <main+0x1bc6c>
    318a:	0f b6 95 e6 fe ff ff 	movzbl -0x11a(%rbp),%edx
    3191:	0f b6 85 19 ff ff ff 	movzbl -0xe7(%rbp),%eax
    3198:	38 c2                	cmp    %al,%dl
    319a:	0f 83 2c 93 01 00    	jae    1c4cc <main+0x1bc72>
    31a0:	0f b6 95 e6 fe ff ff 	movzbl -0x11a(%rbp),%edx
    31a7:	0f b6 85 1a ff ff ff 	movzbl -0xe6(%rbp),%eax
    31ae:	38 c2                	cmp    %al,%dl
    31b0:	0f 83 1c 93 01 00    	jae    1c4d2 <main+0x1bc78>
    31b6:	0f b6 95 e6 fe ff ff 	movzbl -0x11a(%rbp),%edx
    31bd:	0f b6 85 1b ff ff ff 	movzbl -0xe5(%rbp),%eax
    31c4:	38 c2                	cmp    %al,%dl
    31c6:	0f 83 0c 93 01 00    	jae    1c4d8 <main+0x1bc7e>
    31cc:	0f b6 95 e6 fe ff ff 	movzbl -0x11a(%rbp),%edx
    31d3:	0f b6 85 1c ff ff ff 	movzbl -0xe4(%rbp),%eax
    31da:	38 c2                	cmp    %al,%dl
    31dc:	0f 83 fc 92 01 00    	jae    1c4de <main+0x1bc84>
    31e2:	0f b6 95 e6 fe ff ff 	movzbl -0x11a(%rbp),%edx
    31e9:	0f b6 85 1d ff ff ff 	movzbl -0xe3(%rbp),%eax
    31f0:	38 c2                	cmp    %al,%dl
    31f2:	0f 86 ec 92 01 00    	jbe    1c4e4 <main+0x1bc8a>
    31f8:	0f b6 95 e6 fe ff ff 	movzbl -0x11a(%rbp),%edx
    31ff:	0f b6 85 1e ff ff ff 	movzbl -0xe2(%rbp),%eax
    3206:	38 c2                	cmp    %al,%dl
    3208:	0f 83 dc 92 01 00    	jae    1c4ea <main+0x1bc90>
    320e:	0f b6 95 e6 fe ff ff 	movzbl -0x11a(%rbp),%edx
    3215:	0f b6 85 1f ff ff ff 	movzbl -0xe1(%rbp),%eax
    321c:	38 c2                	cmp    %al,%dl
    321e:	0f 86 cc 92 01 00    	jbe    1c4f0 <main+0x1bc96>
    3224:	0f b6 95 e6 fe ff ff 	movzbl -0x11a(%rbp),%edx
    322b:	0f b6 85 20 ff ff ff 	movzbl -0xe0(%rbp),%eax
    3232:	38 c2                	cmp    %al,%dl
    3234:	0f 86 bc 92 01 00    	jbe    1c4f6 <main+0x1bc9c>
    323a:	0f b6 95 e6 fe ff ff 	movzbl -0x11a(%rbp),%edx
    3241:	0f b6 85 21 ff ff ff 	movzbl -0xdf(%rbp),%eax
    3248:	38 c2                	cmp    %al,%dl
    324a:	0f 83 ac 92 01 00    	jae    1c4fc <main+0x1bca2>
    3250:	0f b6 95 e6 fe ff ff 	movzbl -0x11a(%rbp),%edx
    3257:	0f b6 85 22 ff ff ff 	movzbl -0xde(%rbp),%eax
    325e:	38 c2                	cmp    %al,%dl
    3260:	0f 86 9c 92 01 00    	jbe    1c502 <main+0x1bca8>
    3266:	0f b6 95 e6 fe ff ff 	movzbl -0x11a(%rbp),%edx
    326d:	0f b6 85 23 ff ff ff 	movzbl -0xdd(%rbp),%eax
    3274:	38 c2                	cmp    %al,%dl
    3276:	0f 83 8c 92 01 00    	jae    1c508 <main+0x1bcae>
    327c:	0f b6 95 e6 fe ff ff 	movzbl -0x11a(%rbp),%edx
    3283:	0f b6 85 24 ff ff ff 	movzbl -0xdc(%rbp),%eax
    328a:	38 c2                	cmp    %al,%dl
    328c:	0f 83 7c 92 01 00    	jae    1c50e <main+0x1bcb4>
    3292:	0f b6 95 e6 fe ff ff 	movzbl -0x11a(%rbp),%edx
    3299:	0f b6 85 25 ff ff ff 	movzbl -0xdb(%rbp),%eax
    32a0:	38 c2                	cmp    %al,%dl
    32a2:	0f 83 6c 92 01 00    	jae    1c514 <main+0x1bcba>
    32a8:	0f b6 95 e6 fe ff ff 	movzbl -0x11a(%rbp),%edx
    32af:	0f b6 85 26 ff ff ff 	movzbl -0xda(%rbp),%eax
    32b6:	38 c2                	cmp    %al,%dl
    32b8:	0f 83 5c 92 01 00    	jae    1c51a <main+0x1bcc0>
    32be:	0f b6 95 e6 fe ff ff 	movzbl -0x11a(%rbp),%edx
    32c5:	0f b6 85 27 ff ff ff 	movzbl -0xd9(%rbp),%eax
    32cc:	38 c2                	cmp    %al,%dl
    32ce:	0f 83 4c 92 01 00    	jae    1c520 <main+0x1bcc6>
    32d4:	0f b6 95 e6 fe ff ff 	movzbl -0x11a(%rbp),%edx
    32db:	0f b6 85 28 ff ff ff 	movzbl -0xd8(%rbp),%eax
    32e2:	38 c2                	cmp    %al,%dl
    32e4:	0f 83 3c 92 01 00    	jae    1c526 <main+0x1bccc>
    32ea:	0f b6 95 e7 fe ff ff 	movzbl -0x119(%rbp),%edx
    32f1:	0f b6 85 e0 fe ff ff 	movzbl -0x120(%rbp),%eax
    32f8:	38 c2                	cmp    %al,%dl
    32fa:	0f 83 2c 92 01 00    	jae    1c52c <main+0x1bcd2>
    3300:	0f b6 95 e7 fe ff ff 	movzbl -0x119(%rbp),%edx
    3307:	0f b6 85 e1 fe ff ff 	movzbl -0x11f(%rbp),%eax
    330e:	38 c2                	cmp    %al,%dl
    3310:	0f 83 1c 92 01 00    	jae    1c532 <main+0x1bcd8>
    3316:	0f b6 95 e7 fe ff ff 	movzbl -0x119(%rbp),%edx
    331d:	0f b6 85 e2 fe ff ff 	movzbl -0x11e(%rbp),%eax
    3324:	38 c2                	cmp    %al,%dl
    3326:	0f 86 0c 92 01 00    	jbe    1c538 <main+0x1bcde>
    332c:	0f b6 95 e7 fe ff ff 	movzbl -0x119(%rbp),%edx
    3333:	0f b6 85 e3 fe ff ff 	movzbl -0x11d(%rbp),%eax
    333a:	38 c2                	cmp    %al,%dl
    333c:	0f 83 fc 91 01 00    	jae    1c53e <main+0x1bce4>
    3342:	0f b6 95 e7 fe ff ff 	movzbl -0x119(%rbp),%edx
    3349:	0f b6 85 e4 fe ff ff 	movzbl -0x11c(%rbp),%eax
    3350:	38 c2                	cmp    %al,%dl
    3352:	0f 83 ec 91 01 00    	jae    1c544 <main+0x1bcea>
    3358:	0f b6 95 e7 fe ff ff 	movzbl -0x119(%rbp),%edx
    335f:	0f b6 85 e5 fe ff ff 	movzbl -0x11b(%rbp),%eax
    3366:	38 c2                	cmp    %al,%dl
    3368:	0f 83 dc 91 01 00    	jae    1c54a <main+0x1bcf0>
    336e:	0f b6 95 e7 fe ff ff 	movzbl -0x119(%rbp),%edx
    3375:	0f b6 85 e6 fe ff ff 	movzbl -0x11a(%rbp),%eax
    337c:	38 c2                	cmp    %al,%dl
    337e:	0f 83 cc 91 01 00    	jae    1c550 <main+0x1bcf6>
    3384:	0f b6 95 e7 fe ff ff 	movzbl -0x119(%rbp),%edx
    338b:	0f b6 85 e8 fe ff ff 	movzbl -0x118(%rbp),%eax
    3392:	38 c2                	cmp    %al,%dl
    3394:	0f 83 bc 91 01 00    	jae    1c556 <main+0x1bcfc>
    339a:	0f b6 95 e7 fe ff ff 	movzbl -0x119(%rbp),%edx
    33a1:	0f b6 85 e9 fe ff ff 	movzbl -0x117(%rbp),%eax
    33a8:	38 c2                	cmp    %al,%dl
    33aa:	0f 83 ac 91 01 00    	jae    1c55c <main+0x1bd02>
    33b0:	0f b6 95 e7 fe ff ff 	movzbl -0x119(%rbp),%edx
    33b7:	0f b6 85 ea fe ff ff 	movzbl -0x116(%rbp),%eax
    33be:	38 c2                	cmp    %al,%dl
    33c0:	0f 83 9c 91 01 00    	jae    1c562 <main+0x1bd08>
    33c6:	0f b6 95 e7 fe ff ff 	movzbl -0x119(%rbp),%edx
    33cd:	0f b6 85 eb fe ff ff 	movzbl -0x115(%rbp),%eax
    33d4:	38 c2                	cmp    %al,%dl
    33d6:	0f 86 8c 91 01 00    	jbe    1c568 <main+0x1bd0e>
    33dc:	0f b6 95 e7 fe ff ff 	movzbl -0x119(%rbp),%edx
    33e3:	0f b6 85 ec fe ff ff 	movzbl -0x114(%rbp),%eax
    33ea:	38 c2                	cmp    %al,%dl
    33ec:	0f 83 7c 91 01 00    	jae    1c56e <main+0x1bd14>
    33f2:	0f b6 95 e7 fe ff ff 	movzbl -0x119(%rbp),%edx
    33f9:	0f b6 85 ed fe ff ff 	movzbl -0x113(%rbp),%eax
    3400:	38 c2                	cmp    %al,%dl
    3402:	0f 86 6c 91 01 00    	jbe    1c574 <main+0x1bd1a>
    3408:	0f b6 95 e7 fe ff ff 	movzbl -0x119(%rbp),%edx
    340f:	0f b6 85 ee fe ff ff 	movzbl -0x112(%rbp),%eax
    3416:	38 c2                	cmp    %al,%dl
    3418:	0f 83 5c 91 01 00    	jae    1c57a <main+0x1bd20>
    341e:	0f b6 95 e7 fe ff ff 	movzbl -0x119(%rbp),%edx
    3425:	0f b6 85 ef fe ff ff 	movzbl -0x111(%rbp),%eax
    342c:	38 c2                	cmp    %al,%dl
    342e:	0f 83 4c 91 01 00    	jae    1c580 <main+0x1bd26>
    3434:	0f b6 95 e7 fe ff ff 	movzbl -0x119(%rbp),%edx
    343b:	0f b6 85 f0 fe ff ff 	movzbl -0x110(%rbp),%eax
    3442:	38 c2                	cmp    %al,%dl
    3444:	0f 83 3c 91 01 00    	jae    1c586 <main+0x1bd2c>
    344a:	0f b6 95 e7 fe ff ff 	movzbl -0x119(%rbp),%edx
    3451:	0f b6 85 f1 fe ff ff 	movzbl -0x10f(%rbp),%eax
    3458:	38 c2                	cmp    %al,%dl
    345a:	0f 83 2c 91 01 00    	jae    1c58c <main+0x1bd32>
    3460:	0f b6 95 e7 fe ff ff 	movzbl -0x119(%rbp),%edx
    3467:	0f b6 85 f2 fe ff ff 	movzbl -0x10e(%rbp),%eax
    346e:	38 c2                	cmp    %al,%dl
    3470:	0f 83 1c 91 01 00    	jae    1c592 <main+0x1bd38>
    3476:	0f b6 95 e7 fe ff ff 	movzbl -0x119(%rbp),%edx
    347d:	0f b6 85 f3 fe ff ff 	movzbl -0x10d(%rbp),%eax
    3484:	38 c2                	cmp    %al,%dl
    3486:	0f 83 0c 91 01 00    	jae    1c598 <main+0x1bd3e>
    348c:	0f b6 95 e7 fe ff ff 	movzbl -0x119(%rbp),%edx
    3493:	0f b6 85 f4 fe ff ff 	movzbl -0x10c(%rbp),%eax
    349a:	38 c2                	cmp    %al,%dl
    349c:	0f 83 fc 90 01 00    	jae    1c59e <main+0x1bd44>
    34a2:	0f b6 95 e7 fe ff ff 	movzbl -0x119(%rbp),%edx
    34a9:	0f b6 85 f5 fe ff ff 	movzbl -0x10b(%rbp),%eax
    34b0:	38 c2                	cmp    %al,%dl
    34b2:	0f 83 ec 90 01 00    	jae    1c5a4 <main+0x1bd4a>
    34b8:	0f b6 95 e7 fe ff ff 	movzbl -0x119(%rbp),%edx
    34bf:	0f b6 85 f6 fe ff ff 	movzbl -0x10a(%rbp),%eax
    34c6:	38 c2                	cmp    %al,%dl
    34c8:	0f 83 dc 90 01 00    	jae    1c5aa <main+0x1bd50>
    34ce:	0f b6 95 e7 fe ff ff 	movzbl -0x119(%rbp),%edx
    34d5:	0f b6 85 f7 fe ff ff 	movzbl -0x109(%rbp),%eax
    34dc:	38 c2                	cmp    %al,%dl
    34de:	0f 83 cc 90 01 00    	jae    1c5b0 <main+0x1bd56>
    34e4:	0f b6 95 e7 fe ff ff 	movzbl -0x119(%rbp),%edx
    34eb:	0f b6 85 f8 fe ff ff 	movzbl -0x108(%rbp),%eax
    34f2:	38 c2                	cmp    %al,%dl
    34f4:	0f 83 bc 90 01 00    	jae    1c5b6 <main+0x1bd5c>
    34fa:	0f b6 95 e7 fe ff ff 	movzbl -0x119(%rbp),%edx
    3501:	0f b6 85 fa fe ff ff 	movzbl -0x106(%rbp),%eax
    3508:	38 c2                	cmp    %al,%dl
    350a:	0f 86 ac 90 01 00    	jbe    1c5bc <main+0x1bd62>
    3510:	0f b6 95 e7 fe ff ff 	movzbl -0x119(%rbp),%edx
    3517:	0f b6 85 fb fe ff ff 	movzbl -0x105(%rbp),%eax
    351e:	38 c2                	cmp    %al,%dl
    3520:	0f 83 9c 90 01 00    	jae    1c5c2 <main+0x1bd68>
    3526:	0f b6 95 e7 fe ff ff 	movzbl -0x119(%rbp),%edx
    352d:	0f b6 85 fc fe ff ff 	movzbl -0x104(%rbp),%eax
    3534:	38 c2                	cmp    %al,%dl
    3536:	0f 83 8c 90 01 00    	jae    1c5c8 <main+0x1bd6e>
    353c:	0f b6 95 e7 fe ff ff 	movzbl -0x119(%rbp),%edx
    3543:	0f b6 85 fe fe ff ff 	movzbl -0x102(%rbp),%eax
    354a:	38 c2                	cmp    %al,%dl
    354c:	0f 83 7c 90 01 00    	jae    1c5ce <main+0x1bd74>
    3552:	0f b6 95 e7 fe ff ff 	movzbl -0x119(%rbp),%edx
    3559:	0f b6 85 ff fe ff ff 	movzbl -0x101(%rbp),%eax
    3560:	38 c2                	cmp    %al,%dl
    3562:	0f 83 6c 90 01 00    	jae    1c5d4 <main+0x1bd7a>
    3568:	0f b6 95 e7 fe ff ff 	movzbl -0x119(%rbp),%edx
    356f:	0f b6 85 00 ff ff ff 	movzbl -0x100(%rbp),%eax
    3576:	38 c2                	cmp    %al,%dl
    3578:	0f 83 5c 90 01 00    	jae    1c5da <main+0x1bd80>
    357e:	0f b6 95 e7 fe ff ff 	movzbl -0x119(%rbp),%edx
    3585:	0f b6 85 02 ff ff ff 	movzbl -0xfe(%rbp),%eax
    358c:	38 c2                	cmp    %al,%dl
    358e:	0f 83 4c 90 01 00    	jae    1c5e0 <main+0x1bd86>
    3594:	0f b6 95 e7 fe ff ff 	movzbl -0x119(%rbp),%edx
    359b:	0f b6 85 03 ff ff ff 	movzbl -0xfd(%rbp),%eax
    35a2:	38 c2                	cmp    %al,%dl
    35a4:	0f 86 3c 90 01 00    	jbe    1c5e6 <main+0x1bd8c>
    35aa:	0f b6 95 e7 fe ff ff 	movzbl -0x119(%rbp),%edx
    35b1:	0f b6 85 04 ff ff ff 	movzbl -0xfc(%rbp),%eax
    35b8:	38 c2                	cmp    %al,%dl
    35ba:	0f 83 2c 90 01 00    	jae    1c5ec <main+0x1bd92>
    35c0:	0f b6 95 e7 fe ff ff 	movzbl -0x119(%rbp),%edx
    35c7:	0f b6 85 05 ff ff ff 	movzbl -0xfb(%rbp),%eax
    35ce:	38 c2                	cmp    %al,%dl
    35d0:	0f 83 1c 90 01 00    	jae    1c5f2 <main+0x1bd98>
    35d6:	0f b6 95 e7 fe ff ff 	movzbl -0x119(%rbp),%edx
    35dd:	0f b6 85 06 ff ff ff 	movzbl -0xfa(%rbp),%eax
    35e4:	38 c2                	cmp    %al,%dl
    35e6:	0f 86 0c 90 01 00    	jbe    1c5f8 <main+0x1bd9e>
    35ec:	0f b6 95 e7 fe ff ff 	movzbl -0x119(%rbp),%edx
    35f3:	0f b6 85 07 ff ff ff 	movzbl -0xf9(%rbp),%eax
    35fa:	38 c2                	cmp    %al,%dl
    35fc:	0f 83 fc 8f 01 00    	jae    1c5fe <main+0x1bda4>
    3602:	0f b6 95 e7 fe ff ff 	movzbl -0x119(%rbp),%edx
    3609:	0f b6 85 08 ff ff ff 	movzbl -0xf8(%rbp),%eax
    3610:	38 c2                	cmp    %al,%dl
    3612:	0f 83 ec 8f 01 00    	jae    1c604 <main+0x1bdaa>
    3618:	0f b6 95 e7 fe ff ff 	movzbl -0x119(%rbp),%edx
    361f:	0f b6 85 09 ff ff ff 	movzbl -0xf7(%rbp),%eax
    3626:	38 c2                	cmp    %al,%dl
    3628:	0f 86 dc 8f 01 00    	jbe    1c60a <main+0x1bdb0>
    362e:	0f b6 95 e7 fe ff ff 	movzbl -0x119(%rbp),%edx
    3635:	0f b6 85 0a ff ff ff 	movzbl -0xf6(%rbp),%eax
    363c:	38 c2                	cmp    %al,%dl
    363e:	0f 83 cc 8f 01 00    	jae    1c610 <main+0x1bdb6>
    3644:	0f b6 95 e7 fe ff ff 	movzbl -0x119(%rbp),%edx
    364b:	0f b6 85 0b ff ff ff 	movzbl -0xf5(%rbp),%eax
    3652:	38 c2                	cmp    %al,%dl
    3654:	0f 86 bc 8f 01 00    	jbe    1c616 <main+0x1bdbc>
    365a:	0f b6 95 e7 fe ff ff 	movzbl -0x119(%rbp),%edx
    3661:	0f b6 85 0c ff ff ff 	movzbl -0xf4(%rbp),%eax
    3668:	38 c2                	cmp    %al,%dl
    366a:	0f 83 ac 8f 01 00    	jae    1c61c <main+0x1bdc2>
    3670:	0f b6 95 e7 fe ff ff 	movzbl -0x119(%rbp),%edx
    3677:	0f b6 85 0e ff ff ff 	movzbl -0xf2(%rbp),%eax
    367e:	38 c2                	cmp    %al,%dl
    3680:	0f 86 9c 8f 01 00    	jbe    1c622 <main+0x1bdc8>
    3686:	0f b6 95 e7 fe ff ff 	movzbl -0x119(%rbp),%edx
    368d:	0f b6 85 0f ff ff ff 	movzbl -0xf1(%rbp),%eax
    3694:	38 c2                	cmp    %al,%dl
    3696:	0f 83 8c 8f 01 00    	jae    1c628 <main+0x1bdce>
    369c:	0f b6 95 e7 fe ff ff 	movzbl -0x119(%rbp),%edx
    36a3:	0f b6 85 10 ff ff ff 	movzbl -0xf0(%rbp),%eax
    36aa:	38 c2                	cmp    %al,%dl
    36ac:	0f 83 7c 8f 01 00    	jae    1c62e <main+0x1bdd4>
    36b2:	0f b6 95 e7 fe ff ff 	movzbl -0x119(%rbp),%edx
    36b9:	0f b6 85 12 ff ff ff 	movzbl -0xee(%rbp),%eax
    36c0:	38 c2                	cmp    %al,%dl
    36c2:	0f 86 6c 8f 01 00    	jbe    1c634 <main+0x1bdda>
    36c8:	0f b6 95 e7 fe ff ff 	movzbl -0x119(%rbp),%edx
    36cf:	0f b6 85 13 ff ff ff 	movzbl -0xed(%rbp),%eax
    36d6:	38 c2                	cmp    %al,%dl
    36d8:	0f 83 5c 8f 01 00    	jae    1c63a <main+0x1bde0>
    36de:	0f b6 95 e7 fe ff ff 	movzbl -0x119(%rbp),%edx
    36e5:	0f b6 85 14 ff ff ff 	movzbl -0xec(%rbp),%eax
    36ec:	38 c2                	cmp    %al,%dl
    36ee:	0f 83 4c 8f 01 00    	jae    1c640 <main+0x1bde6>
    36f4:	0f b6 95 e7 fe ff ff 	movzbl -0x119(%rbp),%edx
    36fb:	0f b6 85 15 ff ff ff 	movzbl -0xeb(%rbp),%eax
    3702:	38 c2                	cmp    %al,%dl
    3704:	0f 83 3c 8f 01 00    	jae    1c646 <main+0x1bdec>
    370a:	0f b6 95 e7 fe ff ff 	movzbl -0x119(%rbp),%edx
    3711:	0f b6 85 16 ff ff ff 	movzbl -0xea(%rbp),%eax
    3718:	38 c2                	cmp    %al,%dl
    371a:	0f 83 2c 8f 01 00    	jae    1c64c <main+0x1bdf2>
    3720:	0f b6 95 e7 fe ff ff 	movzbl -0x119(%rbp),%edx
    3727:	0f b6 85 17 ff ff ff 	movzbl -0xe9(%rbp),%eax
    372e:	38 c2                	cmp    %al,%dl
    3730:	0f 83 1c 8f 01 00    	jae    1c652 <main+0x1bdf8>
    3736:	0f b6 95 e7 fe ff ff 	movzbl -0x119(%rbp),%edx
    373d:	0f b6 85 18 ff ff ff 	movzbl -0xe8(%rbp),%eax
    3744:	38 c2                	cmp    %al,%dl
    3746:	0f 86 0c 8f 01 00    	jbe    1c658 <main+0x1bdfe>
    374c:	0f b6 95 e7 fe ff ff 	movzbl -0x119(%rbp),%edx
    3753:	0f b6 85 19 ff ff ff 	movzbl -0xe7(%rbp),%eax
    375a:	38 c2                	cmp    %al,%dl
    375c:	0f 83 fc 8e 01 00    	jae    1c65e <main+0x1be04>
    3762:	0f b6 95 e7 fe ff ff 	movzbl -0x119(%rbp),%edx
    3769:	0f b6 85 1a ff ff ff 	movzbl -0xe6(%rbp),%eax
    3770:	38 c2                	cmp    %al,%dl
    3772:	0f 83 ec 8e 01 00    	jae    1c664 <main+0x1be0a>
    3778:	0f b6 95 e7 fe ff ff 	movzbl -0x119(%rbp),%edx
    377f:	0f b6 85 1b ff ff ff 	movzbl -0xe5(%rbp),%eax
    3786:	38 c2                	cmp    %al,%dl
    3788:	0f 83 dc 8e 01 00    	jae    1c66a <main+0x1be10>
    378e:	0f b6 95 e7 fe ff ff 	movzbl -0x119(%rbp),%edx
    3795:	0f b6 85 1c ff ff ff 	movzbl -0xe4(%rbp),%eax
    379c:	38 c2                	cmp    %al,%dl
    379e:	0f 83 cc 8e 01 00    	jae    1c670 <main+0x1be16>
    37a4:	0f b6 95 e7 fe ff ff 	movzbl -0x119(%rbp),%edx
    37ab:	0f b6 85 1d ff ff ff 	movzbl -0xe3(%rbp),%eax
    37b2:	38 c2                	cmp    %al,%dl
    37b4:	0f 86 bc 8e 01 00    	jbe    1c676 <main+0x1be1c>
    37ba:	0f b6 95 e7 fe ff ff 	movzbl -0x119(%rbp),%edx
    37c1:	0f b6 85 1e ff ff ff 	movzbl -0xe2(%rbp),%eax
    37c8:	38 c2                	cmp    %al,%dl
    37ca:	0f 83 ac 8e 01 00    	jae    1c67c <main+0x1be22>
    37d0:	0f b6 95 e7 fe ff ff 	movzbl -0x119(%rbp),%edx
    37d7:	0f b6 85 20 ff ff ff 	movzbl -0xe0(%rbp),%eax
    37de:	38 c2                	cmp    %al,%dl
    37e0:	0f 86 9c 8e 01 00    	jbe    1c682 <main+0x1be28>
    37e6:	0f b6 95 e7 fe ff ff 	movzbl -0x119(%rbp),%edx
    37ed:	0f b6 85 21 ff ff ff 	movzbl -0xdf(%rbp),%eax
    37f4:	38 c2                	cmp    %al,%dl
    37f6:	0f 83 8c 8e 01 00    	jae    1c688 <main+0x1be2e>
    37fc:	0f b6 95 e7 fe ff ff 	movzbl -0x119(%rbp),%edx
    3803:	0f b6 85 22 ff ff ff 	movzbl -0xde(%rbp),%eax
    380a:	38 c2                	cmp    %al,%dl
    380c:	0f 86 7c 8e 01 00    	jbe    1c68e <main+0x1be34>
    3812:	0f b6 95 e7 fe ff ff 	movzbl -0x119(%rbp),%edx
    3819:	0f b6 85 23 ff ff ff 	movzbl -0xdd(%rbp),%eax
    3820:	38 c2                	cmp    %al,%dl
    3822:	0f 83 6c 8e 01 00    	jae    1c694 <main+0x1be3a>
    3828:	0f b6 95 e7 fe ff ff 	movzbl -0x119(%rbp),%edx
    382f:	0f b6 85 24 ff ff ff 	movzbl -0xdc(%rbp),%eax
    3836:	38 c2                	cmp    %al,%dl
    3838:	0f 83 5c 8e 01 00    	jae    1c69a <main+0x1be40>
    383e:	0f b6 95 e7 fe ff ff 	movzbl -0x119(%rbp),%edx
    3845:	0f b6 85 25 ff ff ff 	movzbl -0xdb(%rbp),%eax
    384c:	38 c2                	cmp    %al,%dl
    384e:	0f 83 4c 8e 01 00    	jae    1c6a0 <main+0x1be46>
    3854:	0f b6 95 e7 fe ff ff 	movzbl -0x119(%rbp),%edx
    385b:	0f b6 85 26 ff ff ff 	movzbl -0xda(%rbp),%eax
    3862:	38 c2                	cmp    %al,%dl
    3864:	0f 83 3c 8e 01 00    	jae    1c6a6 <main+0x1be4c>
    386a:	0f b6 95 e7 fe ff ff 	movzbl -0x119(%rbp),%edx
    3871:	0f b6 85 27 ff ff ff 	movzbl -0xd9(%rbp),%eax
    3878:	38 c2                	cmp    %al,%dl
    387a:	0f 83 2c 8e 01 00    	jae    1c6ac <main+0x1be52>
    3880:	0f b6 95 e7 fe ff ff 	movzbl -0x119(%rbp),%edx
    3887:	0f b6 85 28 ff ff ff 	movzbl -0xd8(%rbp),%eax
    388e:	38 c2                	cmp    %al,%dl
    3890:	0f 83 1c 8e 01 00    	jae    1c6b2 <main+0x1be58>
    3896:	0f b6 95 e8 fe ff ff 	movzbl -0x118(%rbp),%edx
    389d:	0f b6 85 e0 fe ff ff 	movzbl -0x120(%rbp),%eax
    38a4:	38 c2                	cmp    %al,%dl
    38a6:	0f 86 0c 8e 01 00    	jbe    1c6b8 <main+0x1be5e>
    38ac:	0f b6 95 e8 fe ff ff 	movzbl -0x118(%rbp),%edx
    38b3:	0f b6 85 e1 fe ff ff 	movzbl -0x11f(%rbp),%eax
    38ba:	38 c2                	cmp    %al,%dl
    38bc:	0f 86 fc 8d 01 00    	jbe    1c6be <main+0x1be64>
    38c2:	0f b6 95 e8 fe ff ff 	movzbl -0x118(%rbp),%edx
    38c9:	0f b6 85 e2 fe ff ff 	movzbl -0x11e(%rbp),%eax
    38d0:	38 c2                	cmp    %al,%dl
    38d2:	0f 86 ec 8d 01 00    	jbe    1c6c4 <main+0x1be6a>
    38d8:	0f b6 95 e8 fe ff ff 	movzbl -0x118(%rbp),%edx
    38df:	0f b6 85 e3 fe ff ff 	movzbl -0x11d(%rbp),%eax
    38e6:	38 c2                	cmp    %al,%dl
    38e8:	0f 86 dc 8d 01 00    	jbe    1c6ca <main+0x1be70>
    38ee:	0f b6 95 e8 fe ff ff 	movzbl -0x118(%rbp),%edx
    38f5:	0f b6 85 e4 fe ff ff 	movzbl -0x11c(%rbp),%eax
    38fc:	38 c2                	cmp    %al,%dl
    38fe:	0f 83 cc 8d 01 00    	jae    1c6d0 <main+0x1be76>
    3904:	0f b6 95 e8 fe ff ff 	movzbl -0x118(%rbp),%edx
    390b:	0f b6 85 e5 fe ff ff 	movzbl -0x11b(%rbp),%eax
    3912:	38 c2                	cmp    %al,%dl
    3914:	0f 83 bc 8d 01 00    	jae    1c6d6 <main+0x1be7c>
    391a:	0f b6 95 e8 fe ff ff 	movzbl -0x118(%rbp),%edx
    3921:	0f b6 85 e6 fe ff ff 	movzbl -0x11a(%rbp),%eax
    3928:	38 c2                	cmp    %al,%dl
    392a:	0f 86 ac 8d 01 00    	jbe    1c6dc <main+0x1be82>
    3930:	0f b6 95 e8 fe ff ff 	movzbl -0x118(%rbp),%edx
    3937:	0f b6 85 e7 fe ff ff 	movzbl -0x119(%rbp),%eax
    393e:	38 c2                	cmp    %al,%dl
    3940:	0f 86 9c 8d 01 00    	jbe    1c6e2 <main+0x1be88>
    3946:	0f b6 95 e8 fe ff ff 	movzbl -0x118(%rbp),%edx
    394d:	0f b6 85 e9 fe ff ff 	movzbl -0x117(%rbp),%eax
    3954:	38 c2                	cmp    %al,%dl
    3956:	0f 83 8c 8d 01 00    	jae    1c6e8 <main+0x1be8e>
    395c:	0f b6 95 e8 fe ff ff 	movzbl -0x118(%rbp),%edx
    3963:	0f b6 85 ea fe ff ff 	movzbl -0x116(%rbp),%eax
    396a:	38 c2                	cmp    %al,%dl
    396c:	0f 86 7c 8d 01 00    	jbe    1c6ee <main+0x1be94>
    3972:	0f b6 95 e8 fe ff ff 	movzbl -0x118(%rbp),%edx
    3979:	0f b6 85 eb fe ff ff 	movzbl -0x115(%rbp),%eax
    3980:	38 c2                	cmp    %al,%dl
    3982:	0f 86 6c 8d 01 00    	jbe    1c6f4 <main+0x1be9a>
    3988:	0f b6 95 e8 fe ff ff 	movzbl -0x118(%rbp),%edx
    398f:	0f b6 85 ec fe ff ff 	movzbl -0x114(%rbp),%eax
    3996:	38 c2                	cmp    %al,%dl
    3998:	0f 86 5c 8d 01 00    	jbe    1c6fa <main+0x1bea0>
    399e:	0f b6 95 e8 fe ff ff 	movzbl -0x118(%rbp),%edx
    39a5:	0f b6 85 ed fe ff ff 	movzbl -0x113(%rbp),%eax
    39ac:	38 c2                	cmp    %al,%dl
    39ae:	0f 86 4c 8d 01 00    	jbe    1c700 <main+0x1bea6>
    39b4:	0f b6 95 e8 fe ff ff 	movzbl -0x118(%rbp),%edx
    39bb:	0f b6 85 ee fe ff ff 	movzbl -0x112(%rbp),%eax
    39c2:	38 c2                	cmp    %al,%dl
    39c4:	0f 83 3c 8d 01 00    	jae    1c706 <main+0x1beac>
    39ca:	0f b6 95 e8 fe ff ff 	movzbl -0x118(%rbp),%edx
    39d1:	0f b6 85 ef fe ff ff 	movzbl -0x111(%rbp),%eax
    39d8:	38 c2                	cmp    %al,%dl
    39da:	0f 86 2c 8d 01 00    	jbe    1c70c <main+0x1beb2>
    39e0:	0f b6 95 e8 fe ff ff 	movzbl -0x118(%rbp),%edx
    39e7:	0f b6 85 f0 fe ff ff 	movzbl -0x110(%rbp),%eax
    39ee:	38 c2                	cmp    %al,%dl
    39f0:	0f 83 1c 8d 01 00    	jae    1c712 <main+0x1beb8>
    39f6:	0f b6 95 e8 fe ff ff 	movzbl -0x118(%rbp),%edx
    39fd:	0f b6 85 f1 fe ff ff 	movzbl -0x10f(%rbp),%eax
    3a04:	38 c2                	cmp    %al,%dl
    3a06:	0f 86 0c 8d 01 00    	jbe    1c718 <main+0x1bebe>
    3a0c:	0f b6 95 e8 fe ff ff 	movzbl -0x118(%rbp),%edx
    3a13:	0f b6 85 f2 fe ff ff 	movzbl -0x10e(%rbp),%eax
    3a1a:	38 c2                	cmp    %al,%dl
    3a1c:	0f 86 fc 8c 01 00    	jbe    1c71e <main+0x1bec4>
    3a22:	0f b6 95 e8 fe ff ff 	movzbl -0x118(%rbp),%edx
    3a29:	0f b6 85 f3 fe ff ff 	movzbl -0x10d(%rbp),%eax
    3a30:	38 c2                	cmp    %al,%dl
    3a32:	0f 86 ec 8c 01 00    	jbe    1c724 <main+0x1beca>
    3a38:	0f b6 95 e8 fe ff ff 	movzbl -0x118(%rbp),%edx
    3a3f:	0f b6 85 f4 fe ff ff 	movzbl -0x10c(%rbp),%eax
    3a46:	38 c2                	cmp    %al,%dl
    3a48:	0f 83 dc 8c 01 00    	jae    1c72a <main+0x1bed0>
    3a4e:	0f b6 95 e8 fe ff ff 	movzbl -0x118(%rbp),%edx
    3a55:	0f b6 85 f5 fe ff ff 	movzbl -0x10b(%rbp),%eax
    3a5c:	38 c2                	cmp    %al,%dl
    3a5e:	0f 86 cc 8c 01 00    	jbe    1c730 <main+0x1bed6>
    3a64:	0f b6 95 e8 fe ff ff 	movzbl -0x118(%rbp),%edx
    3a6b:	0f b6 85 f6 fe ff ff 	movzbl -0x10a(%rbp),%eax
    3a72:	38 c2                	cmp    %al,%dl
    3a74:	0f 83 bc 8c 01 00    	jae    1c736 <main+0x1bedc>
    3a7a:	0f b6 95 e8 fe ff ff 	movzbl -0x118(%rbp),%edx
    3a81:	0f b6 85 f7 fe ff ff 	movzbl -0x109(%rbp),%eax
    3a88:	38 c2                	cmp    %al,%dl
    3a8a:	0f 86 ac 8c 01 00    	jbe    1c73c <main+0x1bee2>
    3a90:	0f b6 95 e8 fe ff ff 	movzbl -0x118(%rbp),%edx
    3a97:	0f b6 85 f8 fe ff ff 	movzbl -0x108(%rbp),%eax
    3a9e:	38 c2                	cmp    %al,%dl
    3aa0:	0f 86 9c 8c 01 00    	jbe    1c742 <main+0x1bee8>
    3aa6:	0f b6 95 e8 fe ff ff 	movzbl -0x118(%rbp),%edx
    3aad:	0f b6 85 f9 fe ff ff 	movzbl -0x107(%rbp),%eax
    3ab4:	38 c2                	cmp    %al,%dl
    3ab6:	0f 86 8c 8c 01 00    	jbe    1c748 <main+0x1beee>
    3abc:	0f b6 95 e8 fe ff ff 	movzbl -0x118(%rbp),%edx
    3ac3:	0f b6 85 fa fe ff ff 	movzbl -0x106(%rbp),%eax
    3aca:	38 c2                	cmp    %al,%dl
    3acc:	0f 86 7c 8c 01 00    	jbe    1c74e <main+0x1bef4>
    3ad2:	0f b6 95 e8 fe ff ff 	movzbl -0x118(%rbp),%edx
    3ad9:	0f b6 85 fb fe ff ff 	movzbl -0x105(%rbp),%eax
    3ae0:	38 c2                	cmp    %al,%dl
    3ae2:	0f 86 6c 8c 01 00    	jbe    1c754 <main+0x1befa>
    3ae8:	0f b6 95 e8 fe ff ff 	movzbl -0x118(%rbp),%edx
    3aef:	0f b6 85 fc fe ff ff 	movzbl -0x104(%rbp),%eax
    3af6:	38 c2                	cmp    %al,%dl
    3af8:	0f 83 5c 8c 01 00    	jae    1c75a <main+0x1bf00>
    3afe:	0f b6 95 e8 fe ff ff 	movzbl -0x118(%rbp),%edx
    3b05:	0f b6 85 fd fe ff ff 	movzbl -0x103(%rbp),%eax
    3b0c:	38 c2                	cmp    %al,%dl
    3b0e:	0f 86 4c 8c 01 00    	jbe    1c760 <main+0x1bf06>
    3b14:	0f b6 95 e8 fe ff ff 	movzbl -0x118(%rbp),%edx
    3b1b:	0f b6 85 fe fe ff ff 	movzbl -0x102(%rbp),%eax
    3b22:	38 c2                	cmp    %al,%dl
    3b24:	0f 83 3c 8c 01 00    	jae    1c766 <main+0x1bf0c>
    3b2a:	0f b6 95 e8 fe ff ff 	movzbl -0x118(%rbp),%edx
    3b31:	0f b6 85 ff fe ff ff 	movzbl -0x101(%rbp),%eax
    3b38:	38 c2                	cmp    %al,%dl
    3b3a:	0f 83 2c 8c 01 00    	jae    1c76c <main+0x1bf12>
    3b40:	0f b6 95 e8 fe ff ff 	movzbl -0x118(%rbp),%edx
    3b47:	0f b6 85 00 ff ff ff 	movzbl -0x100(%rbp),%eax
    3b4e:	38 c2                	cmp    %al,%dl
    3b50:	0f 86 1c 8c 01 00    	jbe    1c772 <main+0x1bf18>
    3b56:	0f b6 95 e8 fe ff ff 	movzbl -0x118(%rbp),%edx
    3b5d:	0f b6 85 01 ff ff ff 	movzbl -0xff(%rbp),%eax
    3b64:	38 c2                	cmp    %al,%dl
    3b66:	0f 86 0c 8c 01 00    	jbe    1c778 <main+0x1bf1e>
    3b6c:	0f b6 95 e8 fe ff ff 	movzbl -0x118(%rbp),%edx
    3b73:	0f b6 85 02 ff ff ff 	movzbl -0xfe(%rbp),%eax
    3b7a:	38 c2                	cmp    %al,%dl
    3b7c:	0f 86 fc 8b 01 00    	jbe    1c77e <main+0x1bf24>
    3b82:	0f b6 95 e8 fe ff ff 	movzbl -0x118(%rbp),%edx
    3b89:	0f b6 85 03 ff ff ff 	movzbl -0xfd(%rbp),%eax
    3b90:	38 c2                	cmp    %al,%dl
    3b92:	0f 86 ec 8b 01 00    	jbe    1c784 <main+0x1bf2a>
    3b98:	0f b6 95 e8 fe ff ff 	movzbl -0x118(%rbp),%edx
    3b9f:	0f b6 85 04 ff ff ff 	movzbl -0xfc(%rbp),%eax
    3ba6:	38 c2                	cmp    %al,%dl
    3ba8:	0f 83 dc 8b 01 00    	jae    1c78a <main+0x1bf30>
    3bae:	0f b6 95 e8 fe ff ff 	movzbl -0x118(%rbp),%edx
    3bb5:	0f b6 85 05 ff ff ff 	movzbl -0xfb(%rbp),%eax
    3bbc:	38 c2                	cmp    %al,%dl
    3bbe:	0f 83 cc 8b 01 00    	jae    1c790 <main+0x1bf36>
    3bc4:	0f b6 95 e8 fe ff ff 	movzbl -0x118(%rbp),%edx
    3bcb:	0f b6 85 06 ff ff ff 	movzbl -0xfa(%rbp),%eax
    3bd2:	38 c2                	cmp    %al,%dl
    3bd4:	0f 86 bc 8b 01 00    	jbe    1c796 <main+0x1bf3c>
    3bda:	0f b6 95 e8 fe ff ff 	movzbl -0x118(%rbp),%edx
    3be1:	0f b6 85 07 ff ff ff 	movzbl -0xf9(%rbp),%eax
    3be8:	38 c2                	cmp    %al,%dl
    3bea:	0f 86 ac 8b 01 00    	jbe    1c79c <main+0x1bf42>
    3bf0:	0f b6 95 e8 fe ff ff 	movzbl -0x118(%rbp),%edx
    3bf7:	0f b6 85 08 ff ff ff 	movzbl -0xf8(%rbp),%eax
    3bfe:	38 c2                	cmp    %al,%dl
    3c00:	0f 86 9c 8b 01 00    	jbe    1c7a2 <main+0x1bf48>
    3c06:	0f b6 95 e8 fe ff ff 	movzbl -0x118(%rbp),%edx
    3c0d:	0f b6 85 09 ff ff ff 	movzbl -0xf7(%rbp),%eax
    3c14:	38 c2                	cmp    %al,%dl
    3c16:	0f 86 8c 8b 01 00    	jbe    1c7a8 <main+0x1bf4e>
    3c1c:	0f b6 95 e8 fe ff ff 	movzbl -0x118(%rbp),%edx
    3c23:	0f b6 85 0a ff ff ff 	movzbl -0xf6(%rbp),%eax
    3c2a:	38 c2                	cmp    %al,%dl
    3c2c:	0f 86 7c 8b 01 00    	jbe    1c7ae <main+0x1bf54>
    3c32:	0f b6 95 e8 fe ff ff 	movzbl -0x118(%rbp),%edx
    3c39:	0f b6 85 0b ff ff ff 	movzbl -0xf5(%rbp),%eax
    3c40:	38 c2                	cmp    %al,%dl
    3c42:	0f 86 6c 8b 01 00    	jbe    1c7b4 <main+0x1bf5a>
    3c48:	0f b6 95 e8 fe ff ff 	movzbl -0x118(%rbp),%edx
    3c4f:	0f b6 85 0c ff ff ff 	movzbl -0xf4(%rbp),%eax
    3c56:	38 c2                	cmp    %al,%dl
    3c58:	0f 86 5c 8b 01 00    	jbe    1c7ba <main+0x1bf60>
    3c5e:	0f b6 95 e8 fe ff ff 	movzbl -0x118(%rbp),%edx
    3c65:	0f b6 85 0d ff ff ff 	movzbl -0xf3(%rbp),%eax
    3c6c:	38 c2                	cmp    %al,%dl
    3c6e:	0f 86 4c 8b 01 00    	jbe    1c7c0 <main+0x1bf66>
    3c74:	0f b6 95 e8 fe ff ff 	movzbl -0x118(%rbp),%edx
    3c7b:	0f b6 85 0e ff ff ff 	movzbl -0xf2(%rbp),%eax
    3c82:	38 c2                	cmp    %al,%dl
    3c84:	0f 86 3c 8b 01 00    	jbe    1c7c6 <main+0x1bf6c>
    3c8a:	0f b6 95 e8 fe ff ff 	movzbl -0x118(%rbp),%edx
    3c91:	0f b6 85 0f ff ff ff 	movzbl -0xf1(%rbp),%eax
    3c98:	38 c2                	cmp    %al,%dl
    3c9a:	0f 83 2c 8b 01 00    	jae    1c7cc <main+0x1bf72>
    3ca0:	0f b6 95 e8 fe ff ff 	movzbl -0x118(%rbp),%edx
    3ca7:	0f b6 85 10 ff ff ff 	movzbl -0xf0(%rbp),%eax
    3cae:	38 c2                	cmp    %al,%dl
    3cb0:	0f 86 1c 8b 01 00    	jbe    1c7d2 <main+0x1bf78>
    3cb6:	0f b6 95 e8 fe ff ff 	movzbl -0x118(%rbp),%edx
    3cbd:	0f b6 85 11 ff ff ff 	movzbl -0xef(%rbp),%eax
    3cc4:	38 c2                	cmp    %al,%dl
    3cc6:	0f 86 0c 8b 01 00    	jbe    1c7d8 <main+0x1bf7e>
    3ccc:	0f b6 95 e8 fe ff ff 	movzbl -0x118(%rbp),%edx
    3cd3:	0f b6 85 12 ff ff ff 	movzbl -0xee(%rbp),%eax
    3cda:	38 c2                	cmp    %al,%dl
    3cdc:	0f 86 fc 8a 01 00    	jbe    1c7de <main+0x1bf84>
    3ce2:	0f b6 95 e8 fe ff ff 	movzbl -0x118(%rbp),%edx
    3ce9:	0f b6 85 13 ff ff ff 	movzbl -0xed(%rbp),%eax
    3cf0:	38 c2                	cmp    %al,%dl
    3cf2:	0f 86 ec 8a 01 00    	jbe    1c7e4 <main+0x1bf8a>
    3cf8:	0f b6 95 e8 fe ff ff 	movzbl -0x118(%rbp),%edx
    3cff:	0f b6 85 14 ff ff ff 	movzbl -0xec(%rbp),%eax
    3d06:	38 c2                	cmp    %al,%dl
    3d08:	0f 86 dc 8a 01 00    	jbe    1c7ea <main+0x1bf90>
    3d0e:	0f b6 95 e8 fe ff ff 	movzbl -0x118(%rbp),%edx
    3d15:	0f b6 85 15 ff ff ff 	movzbl -0xeb(%rbp),%eax
    3d1c:	38 c2                	cmp    %al,%dl
    3d1e:	0f 83 cc 8a 01 00    	jae    1c7f0 <main+0x1bf96>
    3d24:	0f b6 95 e8 fe ff ff 	movzbl -0x118(%rbp),%edx
    3d2b:	0f b6 85 16 ff ff ff 	movzbl -0xea(%rbp),%eax
    3d32:	38 c2                	cmp    %al,%dl
    3d34:	0f 83 bc 8a 01 00    	jae    1c7f6 <main+0x1bf9c>
    3d3a:	0f b6 95 e8 fe ff ff 	movzbl -0x118(%rbp),%edx
    3d41:	0f b6 85 17 ff ff ff 	movzbl -0xe9(%rbp),%eax
    3d48:	38 c2                	cmp    %al,%dl
    3d4a:	0f 86 ac 8a 01 00    	jbe    1c7fc <main+0x1bfa2>
    3d50:	0f b6 95 e8 fe ff ff 	movzbl -0x118(%rbp),%edx
    3d57:	0f b6 85 18 ff ff ff 	movzbl -0xe8(%rbp),%eax
    3d5e:	38 c2                	cmp    %al,%dl
    3d60:	0f 86 9c 8a 01 00    	jbe    1c802 <main+0x1bfa8>
    3d66:	0f b6 95 e8 fe ff ff 	movzbl -0x118(%rbp),%edx
    3d6d:	0f b6 85 19 ff ff ff 	movzbl -0xe7(%rbp),%eax
    3d74:	38 c2                	cmp    %al,%dl
    3d76:	0f 83 8c 8a 01 00    	jae    1c808 <main+0x1bfae>
    3d7c:	0f b6 95 e8 fe ff ff 	movzbl -0x118(%rbp),%edx
    3d83:	0f b6 85 1a ff ff ff 	movzbl -0xe6(%rbp),%eax
    3d8a:	38 c2                	cmp    %al,%dl
    3d8c:	0f 83 7c 8a 01 00    	jae    1c80e <main+0x1bfb4>
    3d92:	0f b6 95 e8 fe ff ff 	movzbl -0x118(%rbp),%edx
    3d99:	0f b6 85 1b ff ff ff 	movzbl -0xe5(%rbp),%eax
    3da0:	38 c2                	cmp    %al,%dl
    3da2:	0f 86 6c 8a 01 00    	jbe    1c814 <main+0x1bfba>
    3da8:	0f b6 95 e8 fe ff ff 	movzbl -0x118(%rbp),%edx
    3daf:	0f b6 85 1c ff ff ff 	movzbl -0xe4(%rbp),%eax
    3db6:	38 c2                	cmp    %al,%dl
    3db8:	0f 86 5c 8a 01 00    	jbe    1c81a <main+0x1bfc0>
    3dbe:	0f b6 95 e8 fe ff ff 	movzbl -0x118(%rbp),%edx
    3dc5:	0f b6 85 1d ff ff ff 	movzbl -0xe3(%rbp),%eax
    3dcc:	38 c2                	cmp    %al,%dl
    3dce:	0f 86 4c 8a 01 00    	jbe    1c820 <main+0x1bfc6>
    3dd4:	0f b6 95 e8 fe ff ff 	movzbl -0x118(%rbp),%edx
    3ddb:	0f b6 85 1e ff ff ff 	movzbl -0xe2(%rbp),%eax
    3de2:	38 c2                	cmp    %al,%dl
    3de4:	0f 83 3c 8a 01 00    	jae    1c826 <main+0x1bfcc>
    3dea:	0f b6 95 e8 fe ff ff 	movzbl -0x118(%rbp),%edx
    3df1:	0f b6 85 1f ff ff ff 	movzbl -0xe1(%rbp),%eax
    3df8:	38 c2                	cmp    %al,%dl
    3dfa:	0f 86 2c 8a 01 00    	jbe    1c82c <main+0x1bfd2>
    3e00:	0f b6 95 e8 fe ff ff 	movzbl -0x118(%rbp),%edx
    3e07:	0f b6 85 20 ff ff ff 	movzbl -0xe0(%rbp),%eax
    3e0e:	38 c2                	cmp    %al,%dl
    3e10:	0f 86 1c 8a 01 00    	jbe    1c832 <main+0x1bfd8>
    3e16:	0f b6 95 e8 fe ff ff 	movzbl -0x118(%rbp),%edx
    3e1d:	0f b6 85 21 ff ff ff 	movzbl -0xdf(%rbp),%eax
    3e24:	38 c2                	cmp    %al,%dl
    3e26:	0f 86 0c 8a 01 00    	jbe    1c838 <main+0x1bfde>
    3e2c:	0f b6 95 e8 fe ff ff 	movzbl -0x118(%rbp),%edx
    3e33:	0f b6 85 22 ff ff ff 	movzbl -0xde(%rbp),%eax
    3e3a:	38 c2                	cmp    %al,%dl
    3e3c:	0f 86 fc 89 01 00    	jbe    1c83e <main+0x1bfe4>
    3e42:	0f b6 95 e8 fe ff ff 	movzbl -0x118(%rbp),%edx
    3e49:	0f b6 85 23 ff ff ff 	movzbl -0xdd(%rbp),%eax
    3e50:	38 c2                	cmp    %al,%dl
    3e52:	0f 86 ec 89 01 00    	jbe    1c844 <main+0x1bfea>
    3e58:	0f b6 95 e8 fe ff ff 	movzbl -0x118(%rbp),%edx
    3e5f:	0f b6 85 24 ff ff ff 	movzbl -0xdc(%rbp),%eax
    3e66:	38 c2                	cmp    %al,%dl
    3e68:	0f 83 dc 89 01 00    	jae    1c84a <main+0x1bff0>
    3e6e:	0f b6 95 e8 fe ff ff 	movzbl -0x118(%rbp),%edx
    3e75:	0f b6 85 25 ff ff ff 	movzbl -0xdb(%rbp),%eax
    3e7c:	38 c2                	cmp    %al,%dl
    3e7e:	0f 83 cc 89 01 00    	jae    1c850 <main+0x1bff6>
    3e84:	0f b6 95 e8 fe ff ff 	movzbl -0x118(%rbp),%edx
    3e8b:	0f b6 85 26 ff ff ff 	movzbl -0xda(%rbp),%eax
    3e92:	38 c2                	cmp    %al,%dl
    3e94:	0f 86 bc 89 01 00    	jbe    1c856 <main+0x1bffc>
    3e9a:	0f b6 95 e8 fe ff ff 	movzbl -0x118(%rbp),%edx
    3ea1:	0f b6 85 27 ff ff ff 	movzbl -0xd9(%rbp),%eax
    3ea8:	38 c2                	cmp    %al,%dl
    3eaa:	0f 83 ac 89 01 00    	jae    1c85c <main+0x1c002>
    3eb0:	0f b6 95 e8 fe ff ff 	movzbl -0x118(%rbp),%edx
    3eb7:	0f b6 85 28 ff ff ff 	movzbl -0xd8(%rbp),%eax
    3ebe:	38 c2                	cmp    %al,%dl
    3ec0:	0f 83 9c 89 01 00    	jae    1c862 <main+0x1c008>
    3ec6:	0f b6 95 e9 fe ff ff 	movzbl -0x117(%rbp),%edx
    3ecd:	0f b6 85 e0 fe ff ff 	movzbl -0x120(%rbp),%eax
    3ed4:	38 c2                	cmp    %al,%dl
    3ed6:	0f 86 8c 89 01 00    	jbe    1c868 <main+0x1c00e>
    3edc:	0f b6 95 e9 fe ff ff 	movzbl -0x117(%rbp),%edx
    3ee3:	0f b6 85 e1 fe ff ff 	movzbl -0x11f(%rbp),%eax
    3eea:	38 c2                	cmp    %al,%dl
    3eec:	0f 86 7c 89 01 00    	jbe    1c86e <main+0x1c014>
    3ef2:	0f b6 95 e9 fe ff ff 	movzbl -0x117(%rbp),%edx
    3ef9:	0f b6 85 e2 fe ff ff 	movzbl -0x11e(%rbp),%eax
    3f00:	38 c2                	cmp    %al,%dl
    3f02:	0f 86 6c 89 01 00    	jbe    1c874 <main+0x1c01a>
    3f08:	0f b6 95 e9 fe ff ff 	movzbl -0x117(%rbp),%edx
    3f0f:	0f b6 85 e3 fe ff ff 	movzbl -0x11d(%rbp),%eax
    3f16:	38 c2                	cmp    %al,%dl
    3f18:	0f 86 5c 89 01 00    	jbe    1c87a <main+0x1c020>
    3f1e:	0f b6 95 e9 fe ff ff 	movzbl -0x117(%rbp),%edx
    3f25:	0f b6 85 e4 fe ff ff 	movzbl -0x11c(%rbp),%eax
    3f2c:	38 c2                	cmp    %al,%dl
    3f2e:	0f 83 4c 89 01 00    	jae    1c880 <main+0x1c026>
    3f34:	0f b6 95 e9 fe ff ff 	movzbl -0x117(%rbp),%edx
    3f3b:	0f b6 85 e5 fe ff ff 	movzbl -0x11b(%rbp),%eax
    3f42:	38 c2                	cmp    %al,%dl
    3f44:	0f 86 3c 89 01 00    	jbe    1c886 <main+0x1c02c>
    3f4a:	0f b6 95 e9 fe ff ff 	movzbl -0x117(%rbp),%edx
    3f51:	0f b6 85 e6 fe ff ff 	movzbl -0x11a(%rbp),%eax
    3f58:	38 c2                	cmp    %al,%dl
    3f5a:	0f 86 2c 89 01 00    	jbe    1c88c <main+0x1c032>
    3f60:	0f b6 95 e9 fe ff ff 	movzbl -0x117(%rbp),%edx
    3f67:	0f b6 85 e7 fe ff ff 	movzbl -0x119(%rbp),%eax
    3f6e:	38 c2                	cmp    %al,%dl
    3f70:	0f 86 1c 89 01 00    	jbe    1c892 <main+0x1c038>
    3f76:	0f b6 95 e9 fe ff ff 	movzbl -0x117(%rbp),%edx
    3f7d:	0f b6 85 e8 fe ff ff 	movzbl -0x118(%rbp),%eax
    3f84:	38 c2                	cmp    %al,%dl
    3f86:	0f 86 0c 89 01 00    	jbe    1c898 <main+0x1c03e>
    3f8c:	0f b6 95 e9 fe ff ff 	movzbl -0x117(%rbp),%edx
    3f93:	0f b6 85 ea fe ff ff 	movzbl -0x116(%rbp),%eax
    3f9a:	38 c2                	cmp    %al,%dl
    3f9c:	0f 86 fc 88 01 00    	jbe    1c89e <main+0x1c044>
    3fa2:	0f b6 95 e9 fe ff ff 	movzbl -0x117(%rbp),%edx
    3fa9:	0f b6 85 eb fe ff ff 	movzbl -0x115(%rbp),%eax
    3fb0:	38 c2                	cmp    %al,%dl
    3fb2:	0f 86 ec 88 01 00    	jbe    1c8a4 <main+0x1c04a>
    3fb8:	0f b6 95 e9 fe ff ff 	movzbl -0x117(%rbp),%edx
    3fbf:	0f b6 85 ec fe ff ff 	movzbl -0x114(%rbp),%eax
    3fc6:	38 c2                	cmp    %al,%dl
    3fc8:	0f 86 dc 88 01 00    	jbe    1c8aa <main+0x1c050>
    3fce:	0f b6 95 e9 fe ff ff 	movzbl -0x117(%rbp),%edx
    3fd5:	0f b6 85 ed fe ff ff 	movzbl -0x113(%rbp),%eax
    3fdc:	38 c2                	cmp    %al,%dl
    3fde:	0f 86 cc 88 01 00    	jbe    1c8b0 <main+0x1c056>
    3fe4:	0f b6 95 e9 fe ff ff 	movzbl -0x117(%rbp),%edx
    3feb:	0f b6 85 ee fe ff ff 	movzbl -0x112(%rbp),%eax
    3ff2:	38 c2                	cmp    %al,%dl
    3ff4:	0f 86 bc 88 01 00    	jbe    1c8b6 <main+0x1c05c>
    3ffa:	0f b6 95 e9 fe ff ff 	movzbl -0x117(%rbp),%edx
    4001:	0f b6 85 ef fe ff ff 	movzbl -0x111(%rbp),%eax
    4008:	38 c2                	cmp    %al,%dl
    400a:	0f 86 ac 88 01 00    	jbe    1c8bc <main+0x1c062>
    4010:	0f b6 95 e9 fe ff ff 	movzbl -0x117(%rbp),%edx
    4017:	0f b6 85 f0 fe ff ff 	movzbl -0x110(%rbp),%eax
    401e:	38 c2                	cmp    %al,%dl
    4020:	0f 83 9c 88 01 00    	jae    1c8c2 <main+0x1c068>
    4026:	0f b6 95 e9 fe ff ff 	movzbl -0x117(%rbp),%edx
    402d:	0f b6 85 f1 fe ff ff 	movzbl -0x10f(%rbp),%eax
    4034:	38 c2                	cmp    %al,%dl
    4036:	0f 86 8c 88 01 00    	jbe    1c8c8 <main+0x1c06e>
    403c:	0f b6 95 e9 fe ff ff 	movzbl -0x117(%rbp),%edx
    4043:	0f b6 85 f2 fe ff ff 	movzbl -0x10e(%rbp),%eax
    404a:	38 c2                	cmp    %al,%dl
    404c:	0f 86 7c 88 01 00    	jbe    1c8ce <main+0x1c074>
    4052:	0f b6 95 e9 fe ff ff 	movzbl -0x117(%rbp),%edx
    4059:	0f b6 85 f3 fe ff ff 	movzbl -0x10d(%rbp),%eax
    4060:	38 c2                	cmp    %al,%dl
    4062:	0f 86 6c 88 01 00    	jbe    1c8d4 <main+0x1c07a>
    4068:	0f b6 95 e9 fe ff ff 	movzbl -0x117(%rbp),%edx
    406f:	0f b6 85 f4 fe ff ff 	movzbl -0x10c(%rbp),%eax
    4076:	38 c2                	cmp    %al,%dl
    4078:	0f 83 5c 88 01 00    	jae    1c8da <main+0x1c080>
    407e:	0f b6 95 e9 fe ff ff 	movzbl -0x117(%rbp),%edx
    4085:	0f b6 85 f5 fe ff ff 	movzbl -0x10b(%rbp),%eax
    408c:	38 c2                	cmp    %al,%dl
    408e:	0f 86 4c 88 01 00    	jbe    1c8e0 <main+0x1c086>
    4094:	0f b6 95 e9 fe ff ff 	movzbl -0x117(%rbp),%edx
    409b:	0f b6 85 f7 fe ff ff 	movzbl -0x109(%rbp),%eax
    40a2:	38 c2                	cmp    %al,%dl
    40a4:	0f 86 3c 88 01 00    	jbe    1c8e6 <main+0x1c08c>
    40aa:	0f b6 95 e9 fe ff ff 	movzbl -0x117(%rbp),%edx
    40b1:	0f b6 85 f8 fe ff ff 	movzbl -0x108(%rbp),%eax
    40b8:	38 c2                	cmp    %al,%dl
    40ba:	0f 86 2c 88 01 00    	jbe    1c8ec <main+0x1c092>
    40c0:	0f b6 95 e9 fe ff ff 	movzbl -0x117(%rbp),%edx
    40c7:	0f b6 85 f9 fe ff ff 	movzbl -0x107(%rbp),%eax
    40ce:	38 c2                	cmp    %al,%dl
    40d0:	0f 86 1c 88 01 00    	jbe    1c8f2 <main+0x1c098>
    40d6:	0f b6 95 e9 fe ff ff 	movzbl -0x117(%rbp),%edx
    40dd:	0f b6 85 fa fe ff ff 	movzbl -0x106(%rbp),%eax
    40e4:	38 c2                	cmp    %al,%dl
    40e6:	0f 86 0c 88 01 00    	jbe    1c8f8 <main+0x1c09e>
    40ec:	0f b6 95 e9 fe ff ff 	movzbl -0x117(%rbp),%edx
    40f3:	0f b6 85 fb fe ff ff 	movzbl -0x105(%rbp),%eax
    40fa:	38 c2                	cmp    %al,%dl
    40fc:	0f 86 fc 87 01 00    	jbe    1c8fe <main+0x1c0a4>
    4102:	0f b6 95 e9 fe ff ff 	movzbl -0x117(%rbp),%edx
    4109:	0f b6 85 fc fe ff ff 	movzbl -0x104(%rbp),%eax
    4110:	38 c2                	cmp    %al,%dl
    4112:	0f 83 ec 87 01 00    	jae    1c904 <main+0x1c0aa>
    4118:	0f b6 95 e9 fe ff ff 	movzbl -0x117(%rbp),%edx
    411f:	0f b6 85 fd fe ff ff 	movzbl -0x103(%rbp),%eax
    4126:	38 c2                	cmp    %al,%dl
    4128:	0f 86 dc 87 01 00    	jbe    1c90a <main+0x1c0b0>
    412e:	0f b6 95 e9 fe ff ff 	movzbl -0x117(%rbp),%edx
    4135:	0f b6 85 fe fe ff ff 	movzbl -0x102(%rbp),%eax
    413c:	38 c2                	cmp    %al,%dl
    413e:	0f 86 cc 87 01 00    	jbe    1c910 <main+0x1c0b6>
    4144:	0f b6 95 e9 fe ff ff 	movzbl -0x117(%rbp),%edx
    414b:	0f b6 85 ff fe ff ff 	movzbl -0x101(%rbp),%eax
    4152:	38 c2                	cmp    %al,%dl
    4154:	0f 86 bc 87 01 00    	jbe    1c916 <main+0x1c0bc>
    415a:	0f b6 95 e9 fe ff ff 	movzbl -0x117(%rbp),%edx
    4161:	0f b6 85 00 ff ff ff 	movzbl -0x100(%rbp),%eax
    4168:	38 c2                	cmp    %al,%dl
    416a:	0f 86 ac 87 01 00    	jbe    1c91c <main+0x1c0c2>
    4170:	0f b6 95 e9 fe ff ff 	movzbl -0x117(%rbp),%edx
    4177:	0f b6 85 01 ff ff ff 	movzbl -0xff(%rbp),%eax
    417e:	38 c2                	cmp    %al,%dl
    4180:	0f 86 9c 87 01 00    	jbe    1c922 <main+0x1c0c8>
    4186:	0f b6 95 e9 fe ff ff 	movzbl -0x117(%rbp),%edx
    418d:	0f b6 85 02 ff ff ff 	movzbl -0xfe(%rbp),%eax
    4194:	38 c2                	cmp    %al,%dl
    4196:	0f 86 8c 87 01 00    	jbe    1c928 <main+0x1c0ce>
    419c:	0f b6 95 e9 fe ff ff 	movzbl -0x117(%rbp),%edx
    41a3:	0f b6 85 03 ff ff ff 	movzbl -0xfd(%rbp),%eax
    41aa:	38 c2                	cmp    %al,%dl
    41ac:	0f 86 7c 87 01 00    	jbe    1c92e <main+0x1c0d4>
    41b2:	0f b6 95 e9 fe ff ff 	movzbl -0x117(%rbp),%edx
    41b9:	0f b6 85 04 ff ff ff 	movzbl -0xfc(%rbp),%eax
    41c0:	38 c2                	cmp    %al,%dl
    41c2:	0f 83 6c 87 01 00    	jae    1c934 <main+0x1c0da>
    41c8:	0f b6 95 e9 fe ff ff 	movzbl -0x117(%rbp),%edx
    41cf:	0f b6 85 05 ff ff ff 	movzbl -0xfb(%rbp),%eax
    41d6:	38 c2                	cmp    %al,%dl
    41d8:	0f 83 5c 87 01 00    	jae    1c93a <main+0x1c0e0>
    41de:	0f b6 95 e9 fe ff ff 	movzbl -0x117(%rbp),%edx
    41e5:	0f b6 85 06 ff ff ff 	movzbl -0xfa(%rbp),%eax
    41ec:	38 c2                	cmp    %al,%dl
    41ee:	0f 86 4c 87 01 00    	jbe    1c940 <main+0x1c0e6>
    41f4:	0f b6 95 e9 fe ff ff 	movzbl -0x117(%rbp),%edx
    41fb:	0f b6 85 07 ff ff ff 	movzbl -0xf9(%rbp),%eax
    4202:	38 c2                	cmp    %al,%dl
    4204:	0f 86 3c 87 01 00    	jbe    1c946 <main+0x1c0ec>
    420a:	0f b6 95 e9 fe ff ff 	movzbl -0x117(%rbp),%edx
    4211:	0f b6 85 08 ff ff ff 	movzbl -0xf8(%rbp),%eax
    4218:	38 c2                	cmp    %al,%dl
    421a:	0f 86 2c 87 01 00    	jbe    1c94c <main+0x1c0f2>
    4220:	0f b6 95 e9 fe ff ff 	movzbl -0x117(%rbp),%edx
    4227:	0f b6 85 09 ff ff ff 	movzbl -0xf7(%rbp),%eax
    422e:	38 c2                	cmp    %al,%dl
    4230:	0f 86 1c 87 01 00    	jbe    1c952 <main+0x1c0f8>
    4236:	0f b6 95 e9 fe ff ff 	movzbl -0x117(%rbp),%edx
    423d:	0f b6 85 0a ff ff ff 	movzbl -0xf6(%rbp),%eax
    4244:	38 c2                	cmp    %al,%dl
    4246:	0f 86 0c 87 01 00    	jbe    1c958 <main+0x1c0fe>
    424c:	0f b6 95 e9 fe ff ff 	movzbl -0x117(%rbp),%edx
    4253:	0f b6 85 0b ff ff ff 	movzbl -0xf5(%rbp),%eax
    425a:	38 c2                	cmp    %al,%dl
    425c:	0f 86 fc 86 01 00    	jbe    1c95e <main+0x1c104>
    4262:	0f b6 95 e9 fe ff ff 	movzbl -0x117(%rbp),%edx
    4269:	0f b6 85 0c ff ff ff 	movzbl -0xf4(%rbp),%eax
    4270:	38 c2                	cmp    %al,%dl
    4272:	0f 86 ec 86 01 00    	jbe    1c964 <main+0x1c10a>
    4278:	0f b6 95 e9 fe ff ff 	movzbl -0x117(%rbp),%edx
    427f:	0f b6 85 0d ff ff ff 	movzbl -0xf3(%rbp),%eax
    4286:	38 c2                	cmp    %al,%dl
    4288:	0f 86 dc 86 01 00    	jbe    1c96a <main+0x1c110>
    428e:	0f b6 95 e9 fe ff ff 	movzbl -0x117(%rbp),%edx
    4295:	0f b6 85 0e ff ff ff 	movzbl -0xf2(%rbp),%eax
    429c:	38 c2                	cmp    %al,%dl
    429e:	0f 86 cc 86 01 00    	jbe    1c970 <main+0x1c116>
    42a4:	0f b6 95 e9 fe ff ff 	movzbl -0x117(%rbp),%edx
    42ab:	0f b6 85 0f ff ff ff 	movzbl -0xf1(%rbp),%eax
    42b2:	38 c2                	cmp    %al,%dl
    42b4:	0f 86 bc 86 01 00    	jbe    1c976 <main+0x1c11c>
    42ba:	0f b6 95 e9 fe ff ff 	movzbl -0x117(%rbp),%edx
    42c1:	0f b6 85 10 ff ff ff 	movzbl -0xf0(%rbp),%eax
    42c8:	38 c2                	cmp    %al,%dl
    42ca:	0f 86 ac 86 01 00    	jbe    1c97c <main+0x1c122>
    42d0:	0f b6 95 e9 fe ff ff 	movzbl -0x117(%rbp),%edx
    42d7:	0f b6 85 11 ff ff ff 	movzbl -0xef(%rbp),%eax
    42de:	38 c2                	cmp    %al,%dl
    42e0:	0f 86 9c 86 01 00    	jbe    1c982 <main+0x1c128>
    42e6:	0f b6 95 e9 fe ff ff 	movzbl -0x117(%rbp),%edx
    42ed:	0f b6 85 12 ff ff ff 	movzbl -0xee(%rbp),%eax
    42f4:	38 c2                	cmp    %al,%dl
    42f6:	0f 86 8c 86 01 00    	jbe    1c988 <main+0x1c12e>
    42fc:	0f b6 95 e9 fe ff ff 	movzbl -0x117(%rbp),%edx
    4303:	0f b6 85 13 ff ff ff 	movzbl -0xed(%rbp),%eax
    430a:	38 c2                	cmp    %al,%dl
    430c:	0f 86 7c 86 01 00    	jbe    1c98e <main+0x1c134>
    4312:	0f b6 95 e9 fe ff ff 	movzbl -0x117(%rbp),%edx
    4319:	0f b6 85 14 ff ff ff 	movzbl -0xec(%rbp),%eax
    4320:	38 c2                	cmp    %al,%dl
    4322:	0f 86 6c 86 01 00    	jbe    1c994 <main+0x1c13a>
    4328:	0f b6 95 e9 fe ff ff 	movzbl -0x117(%rbp),%edx
    432f:	0f b6 85 15 ff ff ff 	movzbl -0xeb(%rbp),%eax
    4336:	38 c2                	cmp    %al,%dl
    4338:	0f 83 5c 86 01 00    	jae    1c99a <main+0x1c140>
    433e:	0f b6 95 e9 fe ff ff 	movzbl -0x117(%rbp),%edx
    4345:	0f b6 85 16 ff ff ff 	movzbl -0xea(%rbp),%eax
    434c:	38 c2                	cmp    %al,%dl
    434e:	0f 86 4c 86 01 00    	jbe    1c9a0 <main+0x1c146>
    4354:	0f b6 95 e9 fe ff ff 	movzbl -0x117(%rbp),%edx
    435b:	0f b6 85 17 ff ff ff 	movzbl -0xe9(%rbp),%eax
    4362:	38 c2                	cmp    %al,%dl
    4364:	0f 86 3c 86 01 00    	jbe    1c9a6 <main+0x1c14c>
    436a:	0f b6 95 e9 fe ff ff 	movzbl -0x117(%rbp),%edx
    4371:	0f b6 85 18 ff ff ff 	movzbl -0xe8(%rbp),%eax
    4378:	38 c2                	cmp    %al,%dl
    437a:	0f 86 2c 86 01 00    	jbe    1c9ac <main+0x1c152>
    4380:	0f b6 95 e9 fe ff ff 	movzbl -0x117(%rbp),%edx
    4387:	0f b6 85 1a ff ff ff 	movzbl -0xe6(%rbp),%eax
    438e:	38 c2                	cmp    %al,%dl
    4390:	0f 86 1c 86 01 00    	jbe    1c9b2 <main+0x1c158>
    4396:	0f b6 95 e9 fe ff ff 	movzbl -0x117(%rbp),%edx
    439d:	0f b6 85 1b ff ff ff 	movzbl -0xe5(%rbp),%eax
    43a4:	38 c2                	cmp    %al,%dl
    43a6:	0f 86 0c 86 01 00    	jbe    1c9b8 <main+0x1c15e>
    43ac:	0f b6 95 e9 fe ff ff 	movzbl -0x117(%rbp),%edx
    43b3:	0f b6 85 1c ff ff ff 	movzbl -0xe4(%rbp),%eax
    43ba:	38 c2                	cmp    %al,%dl
    43bc:	0f 86 fc 85 01 00    	jbe    1c9be <main+0x1c164>
    43c2:	0f b6 95 e9 fe ff ff 	movzbl -0x117(%rbp),%edx
    43c9:	0f b6 85 1d ff ff ff 	movzbl -0xe3(%rbp),%eax
    43d0:	38 c2                	cmp    %al,%dl
    43d2:	0f 86 ec 85 01 00    	jbe    1c9c4 <main+0x1c16a>
    43d8:	0f b6 95 e9 fe ff ff 	movzbl -0x117(%rbp),%edx
    43df:	0f b6 85 1e ff ff ff 	movzbl -0xe2(%rbp),%eax
    43e6:	38 c2                	cmp    %al,%dl
    43e8:	0f 86 dc 85 01 00    	jbe    1c9ca <main+0x1c170>
    43ee:	0f b6 95 e9 fe ff ff 	movzbl -0x117(%rbp),%edx
    43f5:	0f b6 85 1f ff ff ff 	movzbl -0xe1(%rbp),%eax
    43fc:	38 c2                	cmp    %al,%dl
    43fe:	0f 86 cc 85 01 00    	jbe    1c9d0 <main+0x1c176>
    4404:	0f b6 95 e9 fe ff ff 	movzbl -0x117(%rbp),%edx
    440b:	0f b6 85 20 ff ff ff 	movzbl -0xe0(%rbp),%eax
    4412:	38 c2                	cmp    %al,%dl
    4414:	0f 86 bc 85 01 00    	jbe    1c9d6 <main+0x1c17c>
    441a:	0f b6 95 e9 fe ff ff 	movzbl -0x117(%rbp),%edx
    4421:	0f b6 85 21 ff ff ff 	movzbl -0xdf(%rbp),%eax
    4428:	38 c2                	cmp    %al,%dl
    442a:	0f 86 ac 85 01 00    	jbe    1c9dc <main+0x1c182>
    4430:	0f b6 95 e9 fe ff ff 	movzbl -0x117(%rbp),%edx
    4437:	0f b6 85 22 ff ff ff 	movzbl -0xde(%rbp),%eax
    443e:	38 c2                	cmp    %al,%dl
    4440:	0f 86 9c 85 01 00    	jbe    1c9e2 <main+0x1c188>
    4446:	0f b6 95 e9 fe ff ff 	movzbl -0x117(%rbp),%edx
    444d:	0f b6 85 23 ff ff ff 	movzbl -0xdd(%rbp),%eax
    4454:	38 c2                	cmp    %al,%dl
    4456:	0f 86 8c 85 01 00    	jbe    1c9e8 <main+0x1c18e>
    445c:	0f b6 95 e9 fe ff ff 	movzbl -0x117(%rbp),%edx
    4463:	0f b6 85 24 ff ff ff 	movzbl -0xdc(%rbp),%eax
    446a:	38 c2                	cmp    %al,%dl
    446c:	0f 83 7c 85 01 00    	jae    1c9ee <main+0x1c194>
    4472:	0f b6 95 e9 fe ff ff 	movzbl -0x117(%rbp),%edx
    4479:	0f b6 85 25 ff ff ff 	movzbl -0xdb(%rbp),%eax
    4480:	38 c2                	cmp    %al,%dl
    4482:	0f 86 6c 85 01 00    	jbe    1c9f4 <main+0x1c19a>
    4488:	0f b6 95 e9 fe ff ff 	movzbl -0x117(%rbp),%edx
    448f:	0f b6 85 26 ff ff ff 	movzbl -0xda(%rbp),%eax
    4496:	38 c2                	cmp    %al,%dl
    4498:	0f 86 5c 85 01 00    	jbe    1c9fa <main+0x1c1a0>
    449e:	0f b6 95 e9 fe ff ff 	movzbl -0x117(%rbp),%edx
    44a5:	0f b6 85 27 ff ff ff 	movzbl -0xd9(%rbp),%eax
    44ac:	38 c2                	cmp    %al,%dl
    44ae:	0f 86 4c 85 01 00    	jbe    1ca00 <main+0x1c1a6>
    44b4:	0f b6 95 e9 fe ff ff 	movzbl -0x117(%rbp),%edx
    44bb:	0f b6 85 28 ff ff ff 	movzbl -0xd8(%rbp),%eax
    44c2:	38 c2                	cmp    %al,%dl
    44c4:	0f 83 3c 85 01 00    	jae    1ca06 <main+0x1c1ac>
    44ca:	0f b6 95 ea fe ff ff 	movzbl -0x116(%rbp),%edx
    44d1:	0f b6 85 e0 fe ff ff 	movzbl -0x120(%rbp),%eax
    44d8:	38 c2                	cmp    %al,%dl
    44da:	0f 86 2c 85 01 00    	jbe    1ca0c <main+0x1c1b2>
    44e0:	0f b6 95 ea fe ff ff 	movzbl -0x116(%rbp),%edx
    44e7:	0f b6 85 e1 fe ff ff 	movzbl -0x11f(%rbp),%eax
    44ee:	38 c2                	cmp    %al,%dl
    44f0:	0f 83 1c 85 01 00    	jae    1ca12 <main+0x1c1b8>
    44f6:	0f b6 95 ea fe ff ff 	movzbl -0x116(%rbp),%edx
    44fd:	0f b6 85 e2 fe ff ff 	movzbl -0x11e(%rbp),%eax
    4504:	38 c2                	cmp    %al,%dl
    4506:	0f 86 0c 85 01 00    	jbe    1ca18 <main+0x1c1be>
    450c:	0f b6 95 ea fe ff ff 	movzbl -0x116(%rbp),%edx
    4513:	0f b6 85 e3 fe ff ff 	movzbl -0x11d(%rbp),%eax
    451a:	38 c2                	cmp    %al,%dl
    451c:	0f 86 fc 84 01 00    	jbe    1ca1e <main+0x1c1c4>
    4522:	0f b6 95 ea fe ff ff 	movzbl -0x116(%rbp),%edx
    4529:	0f b6 85 e4 fe ff ff 	movzbl -0x11c(%rbp),%eax
    4530:	38 c2                	cmp    %al,%dl
    4532:	0f 83 ec 84 01 00    	jae    1ca24 <main+0x1c1ca>
    4538:	0f b6 95 ea fe ff ff 	movzbl -0x116(%rbp),%edx
    453f:	0f b6 85 e5 fe ff ff 	movzbl -0x11b(%rbp),%eax
    4546:	38 c2                	cmp    %al,%dl
    4548:	0f 83 dc 84 01 00    	jae    1ca2a <main+0x1c1d0>
    454e:	0f b6 95 ea fe ff ff 	movzbl -0x116(%rbp),%edx
    4555:	0f b6 85 e6 fe ff ff 	movzbl -0x11a(%rbp),%eax
    455c:	38 c2                	cmp    %al,%dl
    455e:	0f 86 cc 84 01 00    	jbe    1ca30 <main+0x1c1d6>
    4564:	0f b6 95 ea fe ff ff 	movzbl -0x116(%rbp),%edx
    456b:	0f b6 85 e7 fe ff ff 	movzbl -0x119(%rbp),%eax
    4572:	38 c2                	cmp    %al,%dl
    4574:	0f 86 bc 84 01 00    	jbe    1ca36 <main+0x1c1dc>
    457a:	0f b6 95 ea fe ff ff 	movzbl -0x116(%rbp),%edx
    4581:	0f b6 85 e8 fe ff ff 	movzbl -0x118(%rbp),%eax
    4588:	38 c2                	cmp    %al,%dl
    458a:	0f 83 ac 84 01 00    	jae    1ca3c <main+0x1c1e2>
    4590:	0f b6 95 ea fe ff ff 	movzbl -0x116(%rbp),%edx
    4597:	0f b6 85 e9 fe ff ff 	movzbl -0x117(%rbp),%eax
    459e:	38 c2                	cmp    %al,%dl
    45a0:	0f 83 9c 84 01 00    	jae    1ca42 <main+0x1c1e8>
    45a6:	0f b6 95 ea fe ff ff 	movzbl -0x116(%rbp),%edx
    45ad:	0f b6 85 eb fe ff ff 	movzbl -0x115(%rbp),%eax
    45b4:	38 c2                	cmp    %al,%dl
    45b6:	0f 86 8c 84 01 00    	jbe    1ca48 <main+0x1c1ee>
    45bc:	0f b6 95 ea fe ff ff 	movzbl -0x116(%rbp),%edx
    45c3:	0f b6 85 ec fe ff ff 	movzbl -0x114(%rbp),%eax
    45ca:	38 c2                	cmp    %al,%dl
    45cc:	0f 83 7c 84 01 00    	jae    1ca4e <main+0x1c1f4>
    45d2:	0f b6 95 ea fe ff ff 	movzbl -0x116(%rbp),%edx
    45d9:	0f b6 85 ed fe ff ff 	movzbl -0x113(%rbp),%eax
    45e0:	38 c2                	cmp    %al,%dl
    45e2:	0f 86 6c 84 01 00    	jbe    1ca54 <main+0x1c1fa>
    45e8:	0f b6 95 ea fe ff ff 	movzbl -0x116(%rbp),%edx
    45ef:	0f b6 85 ee fe ff ff 	movzbl -0x112(%rbp),%eax
    45f6:	38 c2                	cmp    %al,%dl
    45f8:	0f 83 5c 84 01 00    	jae    1ca5a <main+0x1c200>
    45fe:	0f b6 95 ea fe ff ff 	movzbl -0x116(%rbp),%edx
    4605:	0f b6 85 ef fe ff ff 	movzbl -0x111(%rbp),%eax
    460c:	38 c2                	cmp    %al,%dl
    460e:	0f 83 4c 84 01 00    	jae    1ca60 <main+0x1c206>
    4614:	0f b6 95 ea fe ff ff 	movzbl -0x116(%rbp),%edx
    461b:	0f b6 85 f0 fe ff ff 	movzbl -0x110(%rbp),%eax
    4622:	38 c2                	cmp    %al,%dl
    4624:	0f 83 3c 84 01 00    	jae    1ca66 <main+0x1c20c>
    462a:	0f b6 95 ea fe ff ff 	movzbl -0x116(%rbp),%edx
    4631:	0f b6 85 f1 fe ff ff 	movzbl -0x10f(%rbp),%eax
    4638:	38 c2                	cmp    %al,%dl
    463a:	0f 83 2c 84 01 00    	jae    1ca6c <main+0x1c212>
    4640:	0f b6 95 ea fe ff ff 	movzbl -0x116(%rbp),%edx
    4647:	0f b6 85 f2 fe ff ff 	movzbl -0x10e(%rbp),%eax
    464e:	38 c2                	cmp    %al,%dl
    4650:	0f 86 1c 84 01 00    	jbe    1ca72 <main+0x1c218>
    4656:	0f b6 95 ea fe ff ff 	movzbl -0x116(%rbp),%edx
    465d:	0f b6 85 f3 fe ff ff 	movzbl -0x10d(%rbp),%eax
    4664:	38 c2                	cmp    %al,%dl
    4666:	0f 83 0c 84 01 00    	jae    1ca78 <main+0x1c21e>
    466c:	0f b6 95 ea fe ff ff 	movzbl -0x116(%rbp),%edx
    4673:	0f b6 85 f4 fe ff ff 	movzbl -0x10c(%rbp),%eax
    467a:	38 c2                	cmp    %al,%dl
    467c:	0f 83 fc 83 01 00    	jae    1ca7e <main+0x1c224>
    4682:	0f b6 95 ea fe ff ff 	movzbl -0x116(%rbp),%edx
    4689:	0f b6 85 f5 fe ff ff 	movzbl -0x10b(%rbp),%eax
    4690:	38 c2                	cmp    %al,%dl
    4692:	0f 83 ec 83 01 00    	jae    1ca84 <main+0x1c22a>
    4698:	0f b6 95 ea fe ff ff 	movzbl -0x116(%rbp),%edx
    469f:	0f b6 85 f6 fe ff ff 	movzbl -0x10a(%rbp),%eax
    46a6:	38 c2                	cmp    %al,%dl
    46a8:	0f 83 dc 83 01 00    	jae    1ca8a <main+0x1c230>
    46ae:	0f b6 95 ea fe ff ff 	movzbl -0x116(%rbp),%edx
    46b5:	0f b6 85 f7 fe ff ff 	movzbl -0x109(%rbp),%eax
    46bc:	38 c2                	cmp    %al,%dl
    46be:	0f 83 cc 83 01 00    	jae    1ca90 <main+0x1c236>
    46c4:	0f b6 95 ea fe ff ff 	movzbl -0x116(%rbp),%edx
    46cb:	0f b6 85 f8 fe ff ff 	movzbl -0x108(%rbp),%eax
    46d2:	38 c2                	cmp    %al,%dl
    46d4:	0f 83 bc 83 01 00    	jae    1ca96 <main+0x1c23c>
    46da:	0f b6 95 ea fe ff ff 	movzbl -0x116(%rbp),%edx
    46e1:	0f b6 85 f9 fe ff ff 	movzbl -0x107(%rbp),%eax
    46e8:	38 c2                	cmp    %al,%dl
    46ea:	0f 86 ac 83 01 00    	jbe    1ca9c <main+0x1c242>
    46f0:	0f b6 95 ea fe ff ff 	movzbl -0x116(%rbp),%edx
    46f7:	0f b6 85 fa fe ff ff 	movzbl -0x106(%rbp),%eax
    46fe:	38 c2                	cmp    %al,%dl
    4700:	0f 86 9c 83 01 00    	jbe    1caa2 <main+0x1c248>
    4706:	0f b6 95 ea fe ff ff 	movzbl -0x116(%rbp),%edx
    470d:	0f b6 85 fb fe ff ff 	movzbl -0x105(%rbp),%eax
    4714:	38 c2                	cmp    %al,%dl
    4716:	0f 83 8c 83 01 00    	jae    1caa8 <main+0x1c24e>
    471c:	0f b6 95 ea fe ff ff 	movzbl -0x116(%rbp),%edx
    4723:	0f b6 85 fc fe ff ff 	movzbl -0x104(%rbp),%eax
    472a:	38 c2                	cmp    %al,%dl
    472c:	0f 83 7c 83 01 00    	jae    1caae <main+0x1c254>
    4732:	0f b6 95 ea fe ff ff 	movzbl -0x116(%rbp),%edx
    4739:	0f b6 85 fd fe ff ff 	movzbl -0x103(%rbp),%eax
    4740:	38 c2                	cmp    %al,%dl
    4742:	0f 86 6c 83 01 00    	jbe    1cab4 <main+0x1c25a>
    4748:	0f b6 95 ea fe ff ff 	movzbl -0x116(%rbp),%edx
    474f:	0f b6 85 fe fe ff ff 	movzbl -0x102(%rbp),%eax
    4756:	38 c2                	cmp    %al,%dl
    4758:	0f 83 5c 83 01 00    	jae    1caba <main+0x1c260>
    475e:	0f b6 95 ea fe ff ff 	movzbl -0x116(%rbp),%edx
    4765:	0f b6 85 ff fe ff ff 	movzbl -0x101(%rbp),%eax
    476c:	38 c2                	cmp    %al,%dl
    476e:	0f 83 4c 83 01 00    	jae    1cac0 <main+0x1c266>
    4774:	0f b6 95 ea fe ff ff 	movzbl -0x116(%rbp),%edx
    477b:	0f b6 85 00 ff ff ff 	movzbl -0x100(%rbp),%eax
    4782:	38 c2                	cmp    %al,%dl
    4784:	0f 86 3c 83 01 00    	jbe    1cac6 <main+0x1c26c>
    478a:	0f b6 95 ea fe ff ff 	movzbl -0x116(%rbp),%edx
    4791:	0f b6 85 01 ff ff ff 	movzbl -0xff(%rbp),%eax
    4798:	38 c2                	cmp    %al,%dl
    479a:	0f 86 2c 83 01 00    	jbe    1cacc <main+0x1c272>
    47a0:	0f b6 95 ea fe ff ff 	movzbl -0x116(%rbp),%edx
    47a7:	0f b6 85 02 ff ff ff 	movzbl -0xfe(%rbp),%eax
    47ae:	38 c2                	cmp    %al,%dl
    47b0:	0f 83 1c 83 01 00    	jae    1cad2 <main+0x1c278>
    47b6:	0f b6 95 ea fe ff ff 	movzbl -0x116(%rbp),%edx
    47bd:	0f b6 85 03 ff ff ff 	movzbl -0xfd(%rbp),%eax
    47c4:	38 c2                	cmp    %al,%dl
    47c6:	0f 86 0c 83 01 00    	jbe    1cad8 <main+0x1c27e>
    47cc:	0f b6 95 ea fe ff ff 	movzbl -0x116(%rbp),%edx
    47d3:	0f b6 85 04 ff ff ff 	movzbl -0xfc(%rbp),%eax
    47da:	38 c2                	cmp    %al,%dl
    47dc:	0f 83 fc 82 01 00    	jae    1cade <main+0x1c284>
    47e2:	0f b6 95 ea fe ff ff 	movzbl -0x116(%rbp),%edx
    47e9:	0f b6 85 05 ff ff ff 	movzbl -0xfb(%rbp),%eax
    47f0:	38 c2                	cmp    %al,%dl
    47f2:	0f 83 ec 82 01 00    	jae    1cae4 <main+0x1c28a>
    47f8:	0f b6 95 ea fe ff ff 	movzbl -0x116(%rbp),%edx
    47ff:	0f b6 85 06 ff ff ff 	movzbl -0xfa(%rbp),%eax
    4806:	38 c2                	cmp    %al,%dl
    4808:	0f 86 dc 82 01 00    	jbe    1caea <main+0x1c290>
    480e:	0f b6 95 ea fe ff ff 	movzbl -0x116(%rbp),%edx
    4815:	0f b6 85 07 ff ff ff 	movzbl -0xf9(%rbp),%eax
    481c:	38 c2                	cmp    %al,%dl
    481e:	0f 83 cc 82 01 00    	jae    1caf0 <main+0x1c296>
    4824:	0f b6 95 ea fe ff ff 	movzbl -0x116(%rbp),%edx
    482b:	0f b6 85 08 ff ff ff 	movzbl -0xf8(%rbp),%eax
    4832:	38 c2                	cmp    %al,%dl
    4834:	0f 86 bc 82 01 00    	jbe    1caf6 <main+0x1c29c>
    483a:	0f b6 95 ea fe ff ff 	movzbl -0x116(%rbp),%edx
    4841:	0f b6 85 09 ff ff ff 	movzbl -0xf7(%rbp),%eax
    4848:	38 c2                	cmp    %al,%dl
    484a:	0f 86 ac 82 01 00    	jbe    1cafc <main+0x1c2a2>
    4850:	0f b6 95 ea fe ff ff 	movzbl -0x116(%rbp),%edx
    4857:	0f b6 85 0a ff ff ff 	movzbl -0xf6(%rbp),%eax
    485e:	38 c2                	cmp    %al,%dl
    4860:	0f 83 9c 82 01 00    	jae    1cb02 <main+0x1c2a8>
    4866:	0f b6 95 ea fe ff ff 	movzbl -0x116(%rbp),%edx
    486d:	0f b6 85 0b ff ff ff 	movzbl -0xf5(%rbp),%eax
    4874:	38 c2                	cmp    %al,%dl
    4876:	0f 86 8c 82 01 00    	jbe    1cb08 <main+0x1c2ae>
    487c:	0f b6 95 ea fe ff ff 	movzbl -0x116(%rbp),%edx
    4883:	0f b6 85 0c ff ff ff 	movzbl -0xf4(%rbp),%eax
    488a:	38 c2                	cmp    %al,%dl
    488c:	0f 83 7c 82 01 00    	jae    1cb0e <main+0x1c2b4>
    4892:	0f b6 95 ea fe ff ff 	movzbl -0x116(%rbp),%edx
    4899:	0f b6 85 0d ff ff ff 	movzbl -0xf3(%rbp),%eax
    48a0:	38 c2                	cmp    %al,%dl
    48a2:	0f 86 6c 82 01 00    	jbe    1cb14 <main+0x1c2ba>
    48a8:	0f b6 95 ea fe ff ff 	movzbl -0x116(%rbp),%edx
    48af:	0f b6 85 0e ff ff ff 	movzbl -0xf2(%rbp),%eax
    48b6:	38 c2                	cmp    %al,%dl
    48b8:	0f 86 5c 82 01 00    	jbe    1cb1a <main+0x1c2c0>
    48be:	0f b6 95 ea fe ff ff 	movzbl -0x116(%rbp),%edx
    48c5:	0f b6 85 0f ff ff ff 	movzbl -0xf1(%rbp),%eax
    48cc:	38 c2                	cmp    %al,%dl
    48ce:	0f 83 4c 82 01 00    	jae    1cb20 <main+0x1c2c6>
    48d4:	0f b6 95 ea fe ff ff 	movzbl -0x116(%rbp),%edx
    48db:	0f b6 85 10 ff ff ff 	movzbl -0xf0(%rbp),%eax
    48e2:	38 c2                	cmp    %al,%dl
    48e4:	0f 83 3c 82 01 00    	jae    1cb26 <main+0x1c2cc>
    48ea:	0f b6 95 ea fe ff ff 	movzbl -0x116(%rbp),%edx
    48f1:	0f b6 85 11 ff ff ff 	movzbl -0xef(%rbp),%eax
    48f8:	38 c2                	cmp    %al,%dl
    48fa:	0f 86 2c 82 01 00    	jbe    1cb2c <main+0x1c2d2>
    4900:	0f b6 95 ea fe ff ff 	movzbl -0x116(%rbp),%edx
    4907:	0f b6 85 12 ff ff ff 	movzbl -0xee(%rbp),%eax
    490e:	38 c2                	cmp    %al,%dl
    4910:	0f 86 1c 82 01 00    	jbe    1cb32 <main+0x1c2d8>
    4916:	0f b6 95 ea fe ff ff 	movzbl -0x116(%rbp),%edx
    491d:	0f b6 85 13 ff ff ff 	movzbl -0xed(%rbp),%eax
    4924:	38 c2                	cmp    %al,%dl
    4926:	0f 86 0c 82 01 00    	jbe    1cb38 <main+0x1c2de>
    492c:	0f b6 95 ea fe ff ff 	movzbl -0x116(%rbp),%edx
    4933:	0f b6 85 14 ff ff ff 	movzbl -0xec(%rbp),%eax
    493a:	38 c2                	cmp    %al,%dl
    493c:	0f 83 fc 81 01 00    	jae    1cb3e <main+0x1c2e4>
    4942:	0f b6 95 ea fe ff ff 	movzbl -0x116(%rbp),%edx
    4949:	0f b6 85 15 ff ff ff 	movzbl -0xeb(%rbp),%eax
    4950:	38 c2                	cmp    %al,%dl
    4952:	0f 83 ec 81 01 00    	jae    1cb44 <main+0x1c2ea>
    4958:	0f b6 95 ea fe ff ff 	movzbl -0x116(%rbp),%edx
    495f:	0f b6 85 16 ff ff ff 	movzbl -0xea(%rbp),%eax
    4966:	38 c2                	cmp    %al,%dl
    4968:	0f 83 dc 81 01 00    	jae    1cb4a <main+0x1c2f0>
    496e:	0f b6 95 ea fe ff ff 	movzbl -0x116(%rbp),%edx
    4975:	0f b6 85 17 ff ff ff 	movzbl -0xe9(%rbp),%eax
    497c:	38 c2                	cmp    %al,%dl
    497e:	0f 83 cc 81 01 00    	jae    1cb50 <main+0x1c2f6>
    4984:	0f b6 95 ea fe ff ff 	movzbl -0x116(%rbp),%edx
    498b:	0f b6 85 18 ff ff ff 	movzbl -0xe8(%rbp),%eax
    4992:	38 c2                	cmp    %al,%dl
    4994:	0f 86 bc 81 01 00    	jbe    1cb56 <main+0x1c2fc>
    499a:	0f b6 95 ea fe ff ff 	movzbl -0x116(%rbp),%edx
    49a1:	0f b6 85 19 ff ff ff 	movzbl -0xe7(%rbp),%eax
    49a8:	38 c2                	cmp    %al,%dl
    49aa:	0f 83 ac 81 01 00    	jae    1cb5c <main+0x1c302>
    49b0:	0f b6 95 ea fe ff ff 	movzbl -0x116(%rbp),%edx
    49b7:	0f b6 85 1a ff ff ff 	movzbl -0xe6(%rbp),%eax
    49be:	38 c2                	cmp    %al,%dl
    49c0:	0f 83 9c 81 01 00    	jae    1cb62 <main+0x1c308>
    49c6:	0f b6 95 ea fe ff ff 	movzbl -0x116(%rbp),%edx
    49cd:	0f b6 85 1b ff ff ff 	movzbl -0xe5(%rbp),%eax
    49d4:	38 c2                	cmp    %al,%dl
    49d6:	0f 83 8c 81 01 00    	jae    1cb68 <main+0x1c30e>
    49dc:	0f b6 95 ea fe ff ff 	movzbl -0x116(%rbp),%edx
    49e3:	0f b6 85 1c ff ff ff 	movzbl -0xe4(%rbp),%eax
    49ea:	38 c2                	cmp    %al,%dl
    49ec:	0f 83 7c 81 01 00    	jae    1cb6e <main+0x1c314>
    49f2:	0f b6 95 ea fe ff ff 	movzbl -0x116(%rbp),%edx
    49f9:	0f b6 85 1d ff ff ff 	movzbl -0xe3(%rbp),%eax
    4a00:	38 c2                	cmp    %al,%dl
    4a02:	0f 86 6c 81 01 00    	jbe    1cb74 <main+0x1c31a>
    4a08:	0f b6 95 ea fe ff ff 	movzbl -0x116(%rbp),%edx
    4a0f:	0f b6 85 1e ff ff ff 	movzbl -0xe2(%rbp),%eax
    4a16:	38 c2                	cmp    %al,%dl
    4a18:	0f 83 5c 81 01 00    	jae    1cb7a <main+0x1c320>
    4a1e:	0f b6 95 ea fe ff ff 	movzbl -0x116(%rbp),%edx
    4a25:	0f b6 85 1f ff ff ff 	movzbl -0xe1(%rbp),%eax
    4a2c:	38 c2                	cmp    %al,%dl
    4a2e:	0f 86 4c 81 01 00    	jbe    1cb80 <main+0x1c326>
    4a34:	0f b6 95 ea fe ff ff 	movzbl -0x116(%rbp),%edx
    4a3b:	0f b6 85 20 ff ff ff 	movzbl -0xe0(%rbp),%eax
    4a42:	38 c2                	cmp    %al,%dl
    4a44:	0f 86 3c 81 01 00    	jbe    1cb86 <main+0x1c32c>
    4a4a:	0f b6 95 ea fe ff ff 	movzbl -0x116(%rbp),%edx
    4a51:	0f b6 85 21 ff ff ff 	movzbl -0xdf(%rbp),%eax
    4a58:	38 c2                	cmp    %al,%dl
    4a5a:	0f 83 2c 81 01 00    	jae    1cb8c <main+0x1c332>
    4a60:	0f b6 95 ea fe ff ff 	movzbl -0x116(%rbp),%edx
    4a67:	0f b6 85 22 ff ff ff 	movzbl -0xde(%rbp),%eax
    4a6e:	38 c2                	cmp    %al,%dl
    4a70:	0f 86 1c 81 01 00    	jbe    1cb92 <main+0x1c338>
    4a76:	0f b6 95 ea fe ff ff 	movzbl -0x116(%rbp),%edx
    4a7d:	0f b6 85 23 ff ff ff 	movzbl -0xdd(%rbp),%eax
    4a84:	38 c2                	cmp    %al,%dl
    4a86:	0f 83 0c 81 01 00    	jae    1cb98 <main+0x1c33e>
    4a8c:	0f b6 95 ea fe ff ff 	movzbl -0x116(%rbp),%edx
    4a93:	0f b6 85 24 ff ff ff 	movzbl -0xdc(%rbp),%eax
    4a9a:	38 c2                	cmp    %al,%dl
    4a9c:	0f 83 fc 80 01 00    	jae    1cb9e <main+0x1c344>
    4aa2:	0f b6 95 ea fe ff ff 	movzbl -0x116(%rbp),%edx
    4aa9:	0f b6 85 25 ff ff ff 	movzbl -0xdb(%rbp),%eax
    4ab0:	38 c2                	cmp    %al,%dl
    4ab2:	0f 83 ec 80 01 00    	jae    1cba4 <main+0x1c34a>
    4ab8:	0f b6 95 ea fe ff ff 	movzbl -0x116(%rbp),%edx
    4abf:	0f b6 85 27 ff ff ff 	movzbl -0xd9(%rbp),%eax
    4ac6:	38 c2                	cmp    %al,%dl
    4ac8:	0f 83 dc 80 01 00    	jae    1cbaa <main+0x1c350>
    4ace:	0f b6 95 ea fe ff ff 	movzbl -0x116(%rbp),%edx
    4ad5:	0f b6 85 28 ff ff ff 	movzbl -0xd8(%rbp),%eax
    4adc:	38 c2                	cmp    %al,%dl
    4ade:	0f 83 cc 80 01 00    	jae    1cbb0 <main+0x1c356>
    4ae4:	0f b6 95 eb fe ff ff 	movzbl -0x115(%rbp),%edx
    4aeb:	0f b6 85 e0 fe ff ff 	movzbl -0x120(%rbp),%eax
    4af2:	38 c2                	cmp    %al,%dl
    4af4:	0f 83 bc 80 01 00    	jae    1cbb6 <main+0x1c35c>
    4afa:	0f b6 95 eb fe ff ff 	movzbl -0x115(%rbp),%edx
    4b01:	0f b6 85 e1 fe ff ff 	movzbl -0x11f(%rbp),%eax
    4b08:	38 c2                	cmp    %al,%dl
    4b0a:	0f 83 ac 80 01 00    	jae    1cbbc <main+0x1c362>
    4b10:	0f b6 95 eb fe ff ff 	movzbl -0x115(%rbp),%edx
    4b17:	0f b6 85 e2 fe ff ff 	movzbl -0x11e(%rbp),%eax
    4b1e:	38 c2                	cmp    %al,%dl
    4b20:	0f 86 9c 80 01 00    	jbe    1cbc2 <main+0x1c368>
    4b26:	0f b6 95 eb fe ff ff 	movzbl -0x115(%rbp),%edx
    4b2d:	0f b6 85 e3 fe ff ff 	movzbl -0x11d(%rbp),%eax
    4b34:	38 c2                	cmp    %al,%dl
    4b36:	0f 83 8c 80 01 00    	jae    1cbc8 <main+0x1c36e>
    4b3c:	0f b6 95 eb fe ff ff 	movzbl -0x115(%rbp),%edx
    4b43:	0f b6 85 e4 fe ff ff 	movzbl -0x11c(%rbp),%eax
    4b4a:	38 c2                	cmp    %al,%dl
    4b4c:	0f 83 7c 80 01 00    	jae    1cbce <main+0x1c374>
    4b52:	0f b6 95 eb fe ff ff 	movzbl -0x115(%rbp),%edx
    4b59:	0f b6 85 e5 fe ff ff 	movzbl -0x11b(%rbp),%eax
    4b60:	38 c2                	cmp    %al,%dl
    4b62:	0f 83 6c 80 01 00    	jae    1cbd4 <main+0x1c37a>
    4b68:	0f b6 95 eb fe ff ff 	movzbl -0x115(%rbp),%edx
    4b6f:	0f b6 85 e6 fe ff ff 	movzbl -0x11a(%rbp),%eax
    4b76:	38 c2                	cmp    %al,%dl
    4b78:	0f 83 5c 80 01 00    	jae    1cbda <main+0x1c380>
    4b7e:	0f b6 95 eb fe ff ff 	movzbl -0x115(%rbp),%edx
    4b85:	0f b6 85 e7 fe ff ff 	movzbl -0x119(%rbp),%eax
    4b8c:	38 c2                	cmp    %al,%dl
    4b8e:	0f 83 4c 80 01 00    	jae    1cbe0 <main+0x1c386>
    4b94:	0f b6 95 eb fe ff ff 	movzbl -0x115(%rbp),%edx
    4b9b:	0f b6 85 e8 fe ff ff 	movzbl -0x118(%rbp),%eax
    4ba2:	38 c2                	cmp    %al,%dl
    4ba4:	0f 83 3c 80 01 00    	jae    1cbe6 <main+0x1c38c>
    4baa:	0f b6 95 eb fe ff ff 	movzbl -0x115(%rbp),%edx
    4bb1:	0f b6 85 e9 fe ff ff 	movzbl -0x117(%rbp),%eax
    4bb8:	38 c2                	cmp    %al,%dl
    4bba:	0f 83 2c 80 01 00    	jae    1cbec <main+0x1c392>
    4bc0:	0f b6 95 eb fe ff ff 	movzbl -0x115(%rbp),%edx
    4bc7:	0f b6 85 ea fe ff ff 	movzbl -0x116(%rbp),%eax
    4bce:	38 c2                	cmp    %al,%dl
    4bd0:	0f 83 1c 80 01 00    	jae    1cbf2 <main+0x1c398>
    4bd6:	0f b6 95 eb fe ff ff 	movzbl -0x115(%rbp),%edx
    4bdd:	0f b6 85 ec fe ff ff 	movzbl -0x114(%rbp),%eax
    4be4:	38 c2                	cmp    %al,%dl
    4be6:	0f 83 0c 80 01 00    	jae    1cbf8 <main+0x1c39e>
    4bec:	0f b6 95 eb fe ff ff 	movzbl -0x115(%rbp),%edx
    4bf3:	0f b6 85 ed fe ff ff 	movzbl -0x113(%rbp),%eax
    4bfa:	38 c2                	cmp    %al,%dl
    4bfc:	0f 86 fc 7f 01 00    	jbe    1cbfe <main+0x1c3a4>
    4c02:	0f b6 95 eb fe ff ff 	movzbl -0x115(%rbp),%edx
    4c09:	0f b6 85 ee fe ff ff 	movzbl -0x112(%rbp),%eax
    4c10:	38 c2                	cmp    %al,%dl
    4c12:	0f 83 ec 7f 01 00    	jae    1cc04 <main+0x1c3aa>
    4c18:	0f b6 95 eb fe ff ff 	movzbl -0x115(%rbp),%edx
    4c1f:	0f b6 85 ef fe ff ff 	movzbl -0x111(%rbp),%eax
    4c26:	38 c2                	cmp    %al,%dl
    4c28:	0f 83 dc 7f 01 00    	jae    1cc0a <main+0x1c3b0>
    4c2e:	0f b6 95 eb fe ff ff 	movzbl -0x115(%rbp),%edx
    4c35:	0f b6 85 f0 fe ff ff 	movzbl -0x110(%rbp),%eax
    4c3c:	38 c2                	cmp    %al,%dl
    4c3e:	0f 83 cc 7f 01 00    	jae    1cc10 <main+0x1c3b6>
    4c44:	0f b6 95 eb fe ff ff 	movzbl -0x115(%rbp),%edx
    4c4b:	0f b6 85 f1 fe ff ff 	movzbl -0x10f(%rbp),%eax
    4c52:	38 c2                	cmp    %al,%dl
    4c54:	0f 83 bc 7f 01 00    	jae    1cc16 <main+0x1c3bc>
    4c5a:	0f b6 95 eb fe ff ff 	movzbl -0x115(%rbp),%edx
    4c61:	0f b6 85 f2 fe ff ff 	movzbl -0x10e(%rbp),%eax
    4c68:	38 c2                	cmp    %al,%dl
    4c6a:	0f 83 ac 7f 01 00    	jae    1cc1c <main+0x1c3c2>
    4c70:	0f b6 95 eb fe ff ff 	movzbl -0x115(%rbp),%edx
    4c77:	0f b6 85 f3 fe ff ff 	movzbl -0x10d(%rbp),%eax
    4c7e:	38 c2                	cmp    %al,%dl
    4c80:	0f 83 9c 7f 01 00    	jae    1cc22 <main+0x1c3c8>
    4c86:	0f b6 95 eb fe ff ff 	movzbl -0x115(%rbp),%edx
    4c8d:	0f b6 85 f4 fe ff ff 	movzbl -0x10c(%rbp),%eax
    4c94:	38 c2                	cmp    %al,%dl
    4c96:	0f 83 8c 7f 01 00    	jae    1cc28 <main+0x1c3ce>
    4c9c:	0f b6 95 eb fe ff ff 	movzbl -0x115(%rbp),%edx
    4ca3:	0f b6 85 f5 fe ff ff 	movzbl -0x10b(%rbp),%eax
    4caa:	38 c2                	cmp    %al,%dl
    4cac:	0f 83 7c 7f 01 00    	jae    1cc2e <main+0x1c3d4>
    4cb2:	0f b6 95 eb fe ff ff 	movzbl -0x115(%rbp),%edx
    4cb9:	0f b6 85 f6 fe ff ff 	movzbl -0x10a(%rbp),%eax
    4cc0:	38 c2                	cmp    %al,%dl
    4cc2:	0f 83 6c 7f 01 00    	jae    1cc34 <main+0x1c3da>
    4cc8:	0f b6 95 eb fe ff ff 	movzbl -0x115(%rbp),%edx
    4ccf:	0f b6 85 f7 fe ff ff 	movzbl -0x109(%rbp),%eax
    4cd6:	38 c2                	cmp    %al,%dl
    4cd8:	0f 83 5c 7f 01 00    	jae    1cc3a <main+0x1c3e0>
    4cde:	0f b6 95 eb fe ff ff 	movzbl -0x115(%rbp),%edx
    4ce5:	0f b6 85 f8 fe ff ff 	movzbl -0x108(%rbp),%eax
    4cec:	38 c2                	cmp    %al,%dl
    4cee:	0f 83 4c 7f 01 00    	jae    1cc40 <main+0x1c3e6>
    4cf4:	0f b6 95 eb fe ff ff 	movzbl -0x115(%rbp),%edx
    4cfb:	0f b6 85 f9 fe ff ff 	movzbl -0x107(%rbp),%eax
    4d02:	38 c2                	cmp    %al,%dl
    4d04:	0f 83 3c 7f 01 00    	jae    1cc46 <main+0x1c3ec>
    4d0a:	0f b6 95 eb fe ff ff 	movzbl -0x115(%rbp),%edx
    4d11:	0f b6 85 fa fe ff ff 	movzbl -0x106(%rbp),%eax
    4d18:	38 c2                	cmp    %al,%dl
    4d1a:	0f 83 2c 7f 01 00    	jae    1cc4c <main+0x1c3f2>
    4d20:	0f b6 95 eb fe ff ff 	movzbl -0x115(%rbp),%edx
    4d27:	0f b6 85 fb fe ff ff 	movzbl -0x105(%rbp),%eax
    4d2e:	38 c2                	cmp    %al,%dl
    4d30:	0f 83 1c 7f 01 00    	jae    1cc52 <main+0x1c3f8>
    4d36:	0f b6 95 eb fe ff ff 	movzbl -0x115(%rbp),%edx
    4d3d:	0f b6 85 fc fe ff ff 	movzbl -0x104(%rbp),%eax
    4d44:	38 c2                	cmp    %al,%dl
    4d46:	0f 83 0c 7f 01 00    	jae    1cc58 <main+0x1c3fe>
    4d4c:	0f b6 95 eb fe ff ff 	movzbl -0x115(%rbp),%edx
    4d53:	0f b6 85 fd fe ff ff 	movzbl -0x103(%rbp),%eax
    4d5a:	38 c2                	cmp    %al,%dl
    4d5c:	0f 83 fc 7e 01 00    	jae    1cc5e <main+0x1c404>
    4d62:	0f b6 95 eb fe ff ff 	movzbl -0x115(%rbp),%edx
    4d69:	0f b6 85 fe fe ff ff 	movzbl -0x102(%rbp),%eax
    4d70:	38 c2                	cmp    %al,%dl
    4d72:	0f 83 ec 7e 01 00    	jae    1cc64 <main+0x1c40a>
    4d78:	0f b6 95 eb fe ff ff 	movzbl -0x115(%rbp),%edx
    4d7f:	0f b6 85 ff fe ff ff 	movzbl -0x101(%rbp),%eax
    4d86:	38 c2                	cmp    %al,%dl
    4d88:	0f 83 dc 7e 01 00    	jae    1cc6a <main+0x1c410>
    4d8e:	0f b6 95 eb fe ff ff 	movzbl -0x115(%rbp),%edx
    4d95:	0f b6 85 00 ff ff ff 	movzbl -0x100(%rbp),%eax
    4d9c:	38 c2                	cmp    %al,%dl
    4d9e:	0f 83 cc 7e 01 00    	jae    1cc70 <main+0x1c416>
    4da4:	0f b6 95 eb fe ff ff 	movzbl -0x115(%rbp),%edx
    4dab:	0f b6 85 01 ff ff ff 	movzbl -0xff(%rbp),%eax
    4db2:	38 c2                	cmp    %al,%dl
    4db4:	0f 83 bc 7e 01 00    	jae    1cc76 <main+0x1c41c>
    4dba:	0f b6 95 eb fe ff ff 	movzbl -0x115(%rbp),%edx
    4dc1:	0f b6 85 02 ff ff ff 	movzbl -0xfe(%rbp),%eax
    4dc8:	38 c2                	cmp    %al,%dl
    4dca:	0f 83 ac 7e 01 00    	jae    1cc7c <main+0x1c422>
    4dd0:	0f b6 95 eb fe ff ff 	movzbl -0x115(%rbp),%edx
    4dd7:	0f b6 85 03 ff ff ff 	movzbl -0xfd(%rbp),%eax
    4dde:	38 c2                	cmp    %al,%dl
    4de0:	0f 86 9c 7e 01 00    	jbe    1cc82 <main+0x1c428>
    4de6:	0f b6 95 eb fe ff ff 	movzbl -0x115(%rbp),%edx
    4ded:	0f b6 85 04 ff ff ff 	movzbl -0xfc(%rbp),%eax
    4df4:	38 c2                	cmp    %al,%dl
    4df6:	0f 83 8c 7e 01 00    	jae    1cc88 <main+0x1c42e>
    4dfc:	0f b6 95 eb fe ff ff 	movzbl -0x115(%rbp),%edx
    4e03:	0f b6 85 05 ff ff ff 	movzbl -0xfb(%rbp),%eax
    4e0a:	38 c2                	cmp    %al,%dl
    4e0c:	0f 83 7c 7e 01 00    	jae    1cc8e <main+0x1c434>
    4e12:	0f b6 95 eb fe ff ff 	movzbl -0x115(%rbp),%edx
    4e19:	0f b6 85 06 ff ff ff 	movzbl -0xfa(%rbp),%eax
    4e20:	38 c2                	cmp    %al,%dl
    4e22:	0f 83 6c 7e 01 00    	jae    1cc94 <main+0x1c43a>
    4e28:	0f b6 95 eb fe ff ff 	movzbl -0x115(%rbp),%edx
    4e2f:	0f b6 85 07 ff ff ff 	movzbl -0xf9(%rbp),%eax
    4e36:	38 c2                	cmp    %al,%dl
    4e38:	0f 83 5c 7e 01 00    	jae    1cc9a <main+0x1c440>
    4e3e:	0f b6 95 eb fe ff ff 	movzbl -0x115(%rbp),%edx
    4e45:	0f b6 85 08 ff ff ff 	movzbl -0xf8(%rbp),%eax
    4e4c:	38 c2                	cmp    %al,%dl
    4e4e:	0f 83 4c 7e 01 00    	jae    1cca0 <main+0x1c446>
    4e54:	0f b6 95 eb fe ff ff 	movzbl -0x115(%rbp),%edx
    4e5b:	0f b6 85 09 ff ff ff 	movzbl -0xf7(%rbp),%eax
    4e62:	38 c2                	cmp    %al,%dl
    4e64:	0f 86 3c 7e 01 00    	jbe    1cca6 <main+0x1c44c>
    4e6a:	0f b6 95 eb fe ff ff 	movzbl -0x115(%rbp),%edx
    4e71:	0f b6 85 0a ff ff ff 	movzbl -0xf6(%rbp),%eax
    4e78:	38 c2                	cmp    %al,%dl
    4e7a:	0f 83 2c 7e 01 00    	jae    1ccac <main+0x1c452>
    4e80:	0f b6 95 eb fe ff ff 	movzbl -0x115(%rbp),%edx
    4e87:	0f b6 85 0b ff ff ff 	movzbl -0xf5(%rbp),%eax
    4e8e:	38 c2                	cmp    %al,%dl
    4e90:	0f 83 1c 7e 01 00    	jae    1ccb2 <main+0x1c458>
    4e96:	0f b6 95 eb fe ff ff 	movzbl -0x115(%rbp),%edx
    4e9d:	0f b6 85 0c ff ff ff 	movzbl -0xf4(%rbp),%eax
    4ea4:	38 c2                	cmp    %al,%dl
    4ea6:	0f 83 0c 7e 01 00    	jae    1ccb8 <main+0x1c45e>
    4eac:	0f b6 95 eb fe ff ff 	movzbl -0x115(%rbp),%edx
    4eb3:	0f b6 85 0d ff ff ff 	movzbl -0xf3(%rbp),%eax
    4eba:	38 c2                	cmp    %al,%dl
    4ebc:	0f 83 fc 7d 01 00    	jae    1ccbe <main+0x1c464>
    4ec2:	0f b6 95 eb fe ff ff 	movzbl -0x115(%rbp),%edx
    4ec9:	0f b6 85 0e ff ff ff 	movzbl -0xf2(%rbp),%eax
    4ed0:	38 c2                	cmp    %al,%dl
    4ed2:	0f 86 ec 7d 01 00    	jbe    1ccc4 <main+0x1c46a>
    4ed8:	0f b6 95 eb fe ff ff 	movzbl -0x115(%rbp),%edx
    4edf:	0f b6 85 0f ff ff ff 	movzbl -0xf1(%rbp),%eax
    4ee6:	38 c2                	cmp    %al,%dl
    4ee8:	0f 83 dc 7d 01 00    	jae    1ccca <main+0x1c470>
    4eee:	0f b6 95 eb fe ff ff 	movzbl -0x115(%rbp),%edx
    4ef5:	0f b6 85 10 ff ff ff 	movzbl -0xf0(%rbp),%eax
    4efc:	38 c2                	cmp    %al,%dl
    4efe:	0f 83 cc 7d 01 00    	jae    1ccd0 <main+0x1c476>
    4f04:	0f b6 95 eb fe ff ff 	movzbl -0x115(%rbp),%edx
    4f0b:	0f b6 85 11 ff ff ff 	movzbl -0xef(%rbp),%eax
    4f12:	38 c2                	cmp    %al,%dl
    4f14:	0f 83 bc 7d 01 00    	jae    1ccd6 <main+0x1c47c>
    4f1a:	0f b6 95 eb fe ff ff 	movzbl -0x115(%rbp),%edx
    4f21:	0f b6 85 12 ff ff ff 	movzbl -0xee(%rbp),%eax
    4f28:	38 c2                	cmp    %al,%dl
    4f2a:	0f 83 ac 7d 01 00    	jae    1ccdc <main+0x1c482>
    4f30:	0f b6 95 eb fe ff ff 	movzbl -0x115(%rbp),%edx
    4f37:	0f b6 85 13 ff ff ff 	movzbl -0xed(%rbp),%eax
    4f3e:	38 c2                	cmp    %al,%dl
    4f40:	0f 83 9c 7d 01 00    	jae    1cce2 <main+0x1c488>
    4f46:	0f b6 95 eb fe ff ff 	movzbl -0x115(%rbp),%edx
    4f4d:	0f b6 85 14 ff ff ff 	movzbl -0xec(%rbp),%eax
    4f54:	38 c2                	cmp    %al,%dl
    4f56:	0f 83 8c 7d 01 00    	jae    1cce8 <main+0x1c48e>
    4f5c:	0f b6 95 eb fe ff ff 	movzbl -0x115(%rbp),%edx
    4f63:	0f b6 85 15 ff ff ff 	movzbl -0xeb(%rbp),%eax
    4f6a:	38 c2                	cmp    %al,%dl
    4f6c:	0f 83 7c 7d 01 00    	jae    1ccee <main+0x1c494>
    4f72:	0f b6 95 eb fe ff ff 	movzbl -0x115(%rbp),%edx
    4f79:	0f b6 85 16 ff ff ff 	movzbl -0xea(%rbp),%eax
    4f80:	38 c2                	cmp    %al,%dl
    4f82:	0f 83 6c 7d 01 00    	jae    1ccf4 <main+0x1c49a>
    4f88:	0f b6 95 eb fe ff ff 	movzbl -0x115(%rbp),%edx
    4f8f:	0f b6 85 17 ff ff ff 	movzbl -0xe9(%rbp),%eax
    4f96:	38 c2                	cmp    %al,%dl
    4f98:	0f 83 5c 7d 01 00    	jae    1ccfa <main+0x1c4a0>
    4f9e:	0f b6 95 eb fe ff ff 	movzbl -0x115(%rbp),%edx
    4fa5:	0f b6 85 18 ff ff ff 	movzbl -0xe8(%rbp),%eax
    4fac:	38 c2                	cmp    %al,%dl
    4fae:	0f 86 4c 7d 01 00    	jbe    1cd00 <main+0x1c4a6>
    4fb4:	0f b6 95 eb fe ff ff 	movzbl -0x115(%rbp),%edx
    4fbb:	0f b6 85 19 ff ff ff 	movzbl -0xe7(%rbp),%eax
    4fc2:	38 c2                	cmp    %al,%dl
    4fc4:	0f 83 3c 7d 01 00    	jae    1cd06 <main+0x1c4ac>
    4fca:	0f b6 95 eb fe ff ff 	movzbl -0x115(%rbp),%edx
    4fd1:	0f b6 85 1a ff ff ff 	movzbl -0xe6(%rbp),%eax
    4fd8:	38 c2                	cmp    %al,%dl
    4fda:	0f 83 2c 7d 01 00    	jae    1cd0c <main+0x1c4b2>
    4fe0:	0f b6 95 eb fe ff ff 	movzbl -0x115(%rbp),%edx
    4fe7:	0f b6 85 1b ff ff ff 	movzbl -0xe5(%rbp),%eax
    4fee:	38 c2                	cmp    %al,%dl
    4ff0:	0f 83 1c 7d 01 00    	jae    1cd12 <main+0x1c4b8>
    4ff6:	0f b6 95 eb fe ff ff 	movzbl -0x115(%rbp),%edx
    4ffd:	0f b6 85 1c ff ff ff 	movzbl -0xe4(%rbp),%eax
    5004:	38 c2                	cmp    %al,%dl
    5006:	0f 83 0c 7d 01 00    	jae    1cd18 <main+0x1c4be>
    500c:	0f b6 95 eb fe ff ff 	movzbl -0x115(%rbp),%edx
    5013:	0f b6 85 1d ff ff ff 	movzbl -0xe3(%rbp),%eax
    501a:	38 c2                	cmp    %al,%dl
    501c:	0f 86 fc 7c 01 00    	jbe    1cd1e <main+0x1c4c4>
    5022:	0f b6 95 eb fe ff ff 	movzbl -0x115(%rbp),%edx
    5029:	0f b6 85 1e ff ff ff 	movzbl -0xe2(%rbp),%eax
    5030:	38 c2                	cmp    %al,%dl
    5032:	0f 83 ec 7c 01 00    	jae    1cd24 <main+0x1c4ca>
    5038:	0f b6 95 eb fe ff ff 	movzbl -0x115(%rbp),%edx
    503f:	0f b6 85 1f ff ff ff 	movzbl -0xe1(%rbp),%eax
    5046:	38 c2                	cmp    %al,%dl
    5048:	0f 83 dc 7c 01 00    	jae    1cd2a <main+0x1c4d0>
    504e:	0f b6 95 eb fe ff ff 	movzbl -0x115(%rbp),%edx
    5055:	0f b6 85 20 ff ff ff 	movzbl -0xe0(%rbp),%eax
    505c:	38 c2                	cmp    %al,%dl
    505e:	0f 86 cc 7c 01 00    	jbe    1cd30 <main+0x1c4d6>
    5064:	0f b6 95 eb fe ff ff 	movzbl -0x115(%rbp),%edx
    506b:	0f b6 85 21 ff ff ff 	movzbl -0xdf(%rbp),%eax
    5072:	38 c2                	cmp    %al,%dl
    5074:	0f 83 bc 7c 01 00    	jae    1cd36 <main+0x1c4dc>
    507a:	0f b6 95 eb fe ff ff 	movzbl -0x115(%rbp),%edx
    5081:	0f b6 85 22 ff ff ff 	movzbl -0xde(%rbp),%eax
    5088:	38 c2                	cmp    %al,%dl
    508a:	0f 86 ac 7c 01 00    	jbe    1cd3c <main+0x1c4e2>
    5090:	0f b6 95 eb fe ff ff 	movzbl -0x115(%rbp),%edx
    5097:	0f b6 85 23 ff ff ff 	movzbl -0xdd(%rbp),%eax
    509e:	38 c2                	cmp    %al,%dl
    50a0:	0f 83 9c 7c 01 00    	jae    1cd42 <main+0x1c4e8>
    50a6:	0f b6 95 eb fe ff ff 	movzbl -0x115(%rbp),%edx
    50ad:	0f b6 85 24 ff ff ff 	movzbl -0xdc(%rbp),%eax
    50b4:	38 c2                	cmp    %al,%dl
    50b6:	0f 83 8c 7c 01 00    	jae    1cd48 <main+0x1c4ee>
    50bc:	0f b6 95 eb fe ff ff 	movzbl -0x115(%rbp),%edx
    50c3:	0f b6 85 25 ff ff ff 	movzbl -0xdb(%rbp),%eax
    50ca:	38 c2                	cmp    %al,%dl
    50cc:	0f 83 7c 7c 01 00    	jae    1cd4e <main+0x1c4f4>
    50d2:	0f b6 95 eb fe ff ff 	movzbl -0x115(%rbp),%edx
    50d9:	0f b6 85 26 ff ff ff 	movzbl -0xda(%rbp),%eax
    50e0:	38 c2                	cmp    %al,%dl
    50e2:	0f 83 6c 7c 01 00    	jae    1cd54 <main+0x1c4fa>
    50e8:	0f b6 95 eb fe ff ff 	movzbl -0x115(%rbp),%edx
    50ef:	0f b6 85 27 ff ff ff 	movzbl -0xd9(%rbp),%eax
    50f6:	38 c2                	cmp    %al,%dl
    50f8:	0f 83 5c 7c 01 00    	jae    1cd5a <main+0x1c500>
    50fe:	0f b6 95 eb fe ff ff 	movzbl -0x115(%rbp),%edx
    5105:	0f b6 85 28 ff ff ff 	movzbl -0xd8(%rbp),%eax
    510c:	38 c2                	cmp    %al,%dl
    510e:	0f 83 4c 7c 01 00    	jae    1cd60 <main+0x1c506>
    5114:	0f b6 95 ec fe ff ff 	movzbl -0x114(%rbp),%edx
    511b:	0f b6 85 e0 fe ff ff 	movzbl -0x120(%rbp),%eax
    5122:	38 c2                	cmp    %al,%dl
    5124:	0f 86 3c 7c 01 00    	jbe    1cd66 <main+0x1c50c>
    512a:	0f b6 95 ec fe ff ff 	movzbl -0x114(%rbp),%edx
    5131:	0f b6 85 e1 fe ff ff 	movzbl -0x11f(%rbp),%eax
    5138:	38 c2                	cmp    %al,%dl
    513a:	0f 83 2c 7c 01 00    	jae    1cd6c <main+0x1c512>
    5140:	0f b6 95 ec fe ff ff 	movzbl -0x114(%rbp),%edx
    5147:	0f b6 85 e2 fe ff ff 	movzbl -0x11e(%rbp),%eax
    514e:	38 c2                	cmp    %al,%dl
    5150:	0f 86 1c 7c 01 00    	jbe    1cd72 <main+0x1c518>
    5156:	0f b6 95 ec fe ff ff 	movzbl -0x114(%rbp),%edx
    515d:	0f b6 85 e3 fe ff ff 	movzbl -0x11d(%rbp),%eax
    5164:	38 c2                	cmp    %al,%dl
    5166:	0f 86 0c 7c 01 00    	jbe    1cd78 <main+0x1c51e>
    516c:	0f b6 95 ec fe ff ff 	movzbl -0x114(%rbp),%edx
    5173:	0f b6 85 e4 fe ff ff 	movzbl -0x11c(%rbp),%eax
    517a:	38 c2                	cmp    %al,%dl
    517c:	0f 83 fc 7b 01 00    	jae    1cd7e <main+0x1c524>
    5182:	0f b6 95 ec fe ff ff 	movzbl -0x114(%rbp),%edx
    5189:	0f b6 85 e5 fe ff ff 	movzbl -0x11b(%rbp),%eax
    5190:	38 c2                	cmp    %al,%dl
    5192:	0f 83 ec 7b 01 00    	jae    1cd84 <main+0x1c52a>
    5198:	0f b6 95 ec fe ff ff 	movzbl -0x114(%rbp),%edx
    519f:	0f b6 85 e6 fe ff ff 	movzbl -0x11a(%rbp),%eax
    51a6:	38 c2                	cmp    %al,%dl
    51a8:	0f 86 dc 7b 01 00    	jbe    1cd8a <main+0x1c530>
    51ae:	0f b6 95 ec fe ff ff 	movzbl -0x114(%rbp),%edx
    51b5:	0f b6 85 e7 fe ff ff 	movzbl -0x119(%rbp),%eax
    51bc:	38 c2                	cmp    %al,%dl
    51be:	0f 86 cc 7b 01 00    	jbe    1cd90 <main+0x1c536>
    51c4:	0f b6 95 ec fe ff ff 	movzbl -0x114(%rbp),%edx
    51cb:	0f b6 85 e8 fe ff ff 	movzbl -0x118(%rbp),%eax
    51d2:	38 c2                	cmp    %al,%dl
    51d4:	0f 83 bc 7b 01 00    	jae    1cd96 <main+0x1c53c>
    51da:	0f b6 95 ec fe ff ff 	movzbl -0x114(%rbp),%edx
    51e1:	0f b6 85 e9 fe ff ff 	movzbl -0x117(%rbp),%eax
    51e8:	38 c2                	cmp    %al,%dl
    51ea:	0f 83 ac 7b 01 00    	jae    1cd9c <main+0x1c542>
    51f0:	0f b6 95 ec fe ff ff 	movzbl -0x114(%rbp),%edx
    51f7:	0f b6 85 ea fe ff ff 	movzbl -0x116(%rbp),%eax
    51fe:	38 c2                	cmp    %al,%dl
    5200:	0f 86 9c 7b 01 00    	jbe    1cda2 <main+0x1c548>
    5206:	0f b6 95 ec fe ff ff 	movzbl -0x114(%rbp),%edx
    520d:	0f b6 85 eb fe ff ff 	movzbl -0x115(%rbp),%eax
    5214:	38 c2                	cmp    %al,%dl
    5216:	0f 86 8c 7b 01 00    	jbe    1cda8 <main+0x1c54e>
    521c:	0f b6 95 ec fe ff ff 	movzbl -0x114(%rbp),%edx
    5223:	0f b6 85 ed fe ff ff 	movzbl -0x113(%rbp),%eax
    522a:	38 c2                	cmp    %al,%dl
    522c:	0f 86 7c 7b 01 00    	jbe    1cdae <main+0x1c554>
    5232:	0f b6 95 ec fe ff ff 	movzbl -0x114(%rbp),%edx
    5239:	0f b6 85 ee fe ff ff 	movzbl -0x112(%rbp),%eax
    5240:	38 c2                	cmp    %al,%dl
    5242:	0f 83 6c 7b 01 00    	jae    1cdb4 <main+0x1c55a>
    5248:	0f b6 95 ec fe ff ff 	movzbl -0x114(%rbp),%edx
    524f:	0f b6 85 ef fe ff ff 	movzbl -0x111(%rbp),%eax
    5256:	38 c2                	cmp    %al,%dl
    5258:	0f 83 5c 7b 01 00    	jae    1cdba <main+0x1c560>
    525e:	0f b6 95 ec fe ff ff 	movzbl -0x114(%rbp),%edx
    5265:	0f b6 85 f0 fe ff ff 	movzbl -0x110(%rbp),%eax
    526c:	38 c2                	cmp    %al,%dl
    526e:	0f 83 4c 7b 01 00    	jae    1cdc0 <main+0x1c566>
    5274:	0f b6 95 ec fe ff ff 	movzbl -0x114(%rbp),%edx
    527b:	0f b6 85 f1 fe ff ff 	movzbl -0x10f(%rbp),%eax
    5282:	38 c2                	cmp    %al,%dl
    5284:	0f 83 3c 7b 01 00    	jae    1cdc6 <main+0x1c56c>
    528a:	0f b6 95 ec fe ff ff 	movzbl -0x114(%rbp),%edx
    5291:	0f b6 85 f2 fe ff ff 	movzbl -0x10e(%rbp),%eax
    5298:	38 c2                	cmp    %al,%dl
    529a:	0f 86 2c 7b 01 00    	jbe    1cdcc <main+0x1c572>
    52a0:	0f b6 95 ec fe ff ff 	movzbl -0x114(%rbp),%edx
    52a7:	0f b6 85 f3 fe ff ff 	movzbl -0x10d(%rbp),%eax
    52ae:	38 c2                	cmp    %al,%dl
    52b0:	0f 83 1c 7b 01 00    	jae    1cdd2 <main+0x1c578>
    52b6:	0f b6 95 ec fe ff ff 	movzbl -0x114(%rbp),%edx
    52bd:	0f b6 85 f4 fe ff ff 	movzbl -0x10c(%rbp),%eax
    52c4:	38 c2                	cmp    %al,%dl
    52c6:	0f 83 0c 7b 01 00    	jae    1cdd8 <main+0x1c57e>
    52cc:	0f b6 95 ec fe ff ff 	movzbl -0x114(%rbp),%edx
    52d3:	0f b6 85 f5 fe ff ff 	movzbl -0x10b(%rbp),%eax
    52da:	38 c2                	cmp    %al,%dl
    52dc:	0f 86 fc 7a 01 00    	jbe    1cdde <main+0x1c584>
    52e2:	0f b6 95 ec fe ff ff 	movzbl -0x114(%rbp),%edx
    52e9:	0f b6 85 f6 fe ff ff 	movzbl -0x10a(%rbp),%eax
    52f0:	38 c2                	cmp    %al,%dl
    52f2:	0f 83 ec 7a 01 00    	jae    1cde4 <main+0x1c58a>
    52f8:	0f b6 95 ec fe ff ff 	movzbl -0x114(%rbp),%edx
    52ff:	0f b6 85 f7 fe ff ff 	movzbl -0x109(%rbp),%eax
    5306:	38 c2                	cmp    %al,%dl
    5308:	0f 83 dc 7a 01 00    	jae    1cdea <main+0x1c590>
    530e:	0f b6 95 ec fe ff ff 	movzbl -0x114(%rbp),%edx
    5315:	0f b6 85 f8 fe ff ff 	movzbl -0x108(%rbp),%eax
    531c:	38 c2                	cmp    %al,%dl
    531e:	0f 83 cc 7a 01 00    	jae    1cdf0 <main+0x1c596>
    5324:	0f b6 95 ec fe ff ff 	movzbl -0x114(%rbp),%edx
    532b:	0f b6 85 f9 fe ff ff 	movzbl -0x107(%rbp),%eax
    5332:	38 c2                	cmp    %al,%dl
    5334:	0f 86 bc 7a 01 00    	jbe    1cdf6 <main+0x1c59c>
    533a:	0f b6 95 ec fe ff ff 	movzbl -0x114(%rbp),%edx
    5341:	0f b6 85 fa fe ff ff 	movzbl -0x106(%rbp),%eax
    5348:	38 c2                	cmp    %al,%dl
    534a:	0f 86 ac 7a 01 00    	jbe    1cdfc <main+0x1c5a2>
    5350:	0f b6 95 ec fe ff ff 	movzbl -0x114(%rbp),%edx
    5357:	0f b6 85 fb fe ff ff 	movzbl -0x105(%rbp),%eax
    535e:	38 c2                	cmp    %al,%dl
    5360:	0f 83 9c 7a 01 00    	jae    1ce02 <main+0x1c5a8>
    5366:	0f b6 95 ec fe ff ff 	movzbl -0x114(%rbp),%edx
    536d:	0f b6 85 fc fe ff ff 	movzbl -0x104(%rbp),%eax
    5374:	38 c2                	cmp    %al,%dl
    5376:	0f 83 8c 7a 01 00    	jae    1ce08 <main+0x1c5ae>
    537c:	0f b6 95 ec fe ff ff 	movzbl -0x114(%rbp),%edx
    5383:	0f b6 85 fd fe ff ff 	movzbl -0x103(%rbp),%eax
    538a:	38 c2                	cmp    %al,%dl
    538c:	0f 86 7c 7a 01 00    	jbe    1ce0e <main+0x1c5b4>
    5392:	0f b6 95 ec fe ff ff 	movzbl -0x114(%rbp),%edx
    5399:	0f b6 85 fe fe ff ff 	movzbl -0x102(%rbp),%eax
    53a0:	38 c2                	cmp    %al,%dl
    53a2:	0f 83 6c 7a 01 00    	jae    1ce14 <main+0x1c5ba>
    53a8:	0f b6 95 ec fe ff ff 	movzbl -0x114(%rbp),%edx
    53af:	0f b6 85 ff fe ff ff 	movzbl -0x101(%rbp),%eax
    53b6:	38 c2                	cmp    %al,%dl
    53b8:	0f 83 5c 7a 01 00    	jae    1ce1a <main+0x1c5c0>
    53be:	0f b6 95 ec fe ff ff 	movzbl -0x114(%rbp),%edx
    53c5:	0f b6 85 00 ff ff ff 	movzbl -0x100(%rbp),%eax
    53cc:	38 c2                	cmp    %al,%dl
    53ce:	0f 86 4c 7a 01 00    	jbe    1ce20 <main+0x1c5c6>
    53d4:	0f b6 95 ec fe ff ff 	movzbl -0x114(%rbp),%edx
    53db:	0f b6 85 01 ff ff ff 	movzbl -0xff(%rbp),%eax
    53e2:	38 c2                	cmp    %al,%dl
    53e4:	0f 86 3c 7a 01 00    	jbe    1ce26 <main+0x1c5cc>
    53ea:	0f b6 95 ec fe ff ff 	movzbl -0x114(%rbp),%edx
    53f1:	0f b6 85 02 ff ff ff 	movzbl -0xfe(%rbp),%eax
    53f8:	38 c2                	cmp    %al,%dl
    53fa:	0f 83 2c 7a 01 00    	jae    1ce2c <main+0x1c5d2>
    5400:	0f b6 95 ec fe ff ff 	movzbl -0x114(%rbp),%edx
    5407:	0f b6 85 03 ff ff ff 	movzbl -0xfd(%rbp),%eax
    540e:	38 c2                	cmp    %al,%dl
    5410:	0f 86 1c 7a 01 00    	jbe    1ce32 <main+0x1c5d8>
    5416:	0f b6 95 ec fe ff ff 	movzbl -0x114(%rbp),%edx
    541d:	0f b6 85 04 ff ff ff 	movzbl -0xfc(%rbp),%eax
    5424:	38 c2                	cmp    %al,%dl
    5426:	0f 83 0c 7a 01 00    	jae    1ce38 <main+0x1c5de>
    542c:	0f b6 95 ec fe ff ff 	movzbl -0x114(%rbp),%edx
    5433:	0f b6 85 05 ff ff ff 	movzbl -0xfb(%rbp),%eax
    543a:	38 c2                	cmp    %al,%dl
    543c:	0f 83 fc 79 01 00    	jae    1ce3e <main+0x1c5e4>
    5442:	0f b6 95 ec fe ff ff 	movzbl -0x114(%rbp),%edx
    5449:	0f b6 85 06 ff ff ff 	movzbl -0xfa(%rbp),%eax
    5450:	38 c2                	cmp    %al,%dl
    5452:	0f 86 ec 79 01 00    	jbe    1ce44 <main+0x1c5ea>
    5458:	0f b6 95 ec fe ff ff 	movzbl -0x114(%rbp),%edx
    545f:	0f b6 85 07 ff ff ff 	movzbl -0xf9(%rbp),%eax
    5466:	38 c2                	cmp    %al,%dl
    5468:	0f 83 dc 79 01 00    	jae    1ce4a <main+0x1c5f0>
    546e:	0f b6 95 ec fe ff ff 	movzbl -0x114(%rbp),%edx
    5475:	0f b6 85 08 ff ff ff 	movzbl -0xf8(%rbp),%eax
    547c:	38 c2                	cmp    %al,%dl
    547e:	0f 86 cc 79 01 00    	jbe    1ce50 <main+0x1c5f6>
    5484:	0f b6 95 ec fe ff ff 	movzbl -0x114(%rbp),%edx
    548b:	0f b6 85 09 ff ff ff 	movzbl -0xf7(%rbp),%eax
    5492:	38 c2                	cmp    %al,%dl
    5494:	0f 86 bc 79 01 00    	jbe    1ce56 <main+0x1c5fc>
    549a:	0f b6 95 ec fe ff ff 	movzbl -0x114(%rbp),%edx
    54a1:	0f b6 85 0a ff ff ff 	movzbl -0xf6(%rbp),%eax
    54a8:	38 c2                	cmp    %al,%dl
    54aa:	0f 83 ac 79 01 00    	jae    1ce5c <main+0x1c602>
    54b0:	0f b6 95 ec fe ff ff 	movzbl -0x114(%rbp),%edx
    54b7:	0f b6 85 0b ff ff ff 	movzbl -0xf5(%rbp),%eax
    54be:	38 c2                	cmp    %al,%dl
    54c0:	0f 86 9c 79 01 00    	jbe    1ce62 <main+0x1c608>
    54c6:	0f b6 95 ec fe ff ff 	movzbl -0x114(%rbp),%edx
    54cd:	0f b6 85 0c ff ff ff 	movzbl -0xf4(%rbp),%eax
    54d4:	38 c2                	cmp    %al,%dl
    54d6:	0f 83 8c 79 01 00    	jae    1ce68 <main+0x1c60e>
    54dc:	0f b6 95 ec fe ff ff 	movzbl -0x114(%rbp),%edx
    54e3:	0f b6 85 0d ff ff ff 	movzbl -0xf3(%rbp),%eax
    54ea:	38 c2                	cmp    %al,%dl
    54ec:	0f 86 7c 79 01 00    	jbe    1ce6e <main+0x1c614>
    54f2:	0f b6 95 ec fe ff ff 	movzbl -0x114(%rbp),%edx
    54f9:	0f b6 85 0e ff ff ff 	movzbl -0xf2(%rbp),%eax
    5500:	38 c2                	cmp    %al,%dl
    5502:	0f 86 6c 79 01 00    	jbe    1ce74 <main+0x1c61a>
    5508:	0f b6 95 ec fe ff ff 	movzbl -0x114(%rbp),%edx
    550f:	0f b6 85 0f ff ff ff 	movzbl -0xf1(%rbp),%eax
    5516:	38 c2                	cmp    %al,%dl
    5518:	0f 83 5c 79 01 00    	jae    1ce7a <main+0x1c620>
    551e:	0f b6 95 ec fe ff ff 	movzbl -0x114(%rbp),%edx
    5525:	0f b6 85 10 ff ff ff 	movzbl -0xf0(%rbp),%eax
    552c:	38 c2                	cmp    %al,%dl
    552e:	0f 83 4c 79 01 00    	jae    1ce80 <main+0x1c626>
    5534:	0f b6 95 ec fe ff ff 	movzbl -0x114(%rbp),%edx
    553b:	0f b6 85 11 ff ff ff 	movzbl -0xef(%rbp),%eax
    5542:	38 c2                	cmp    %al,%dl
    5544:	0f 86 3c 79 01 00    	jbe    1ce86 <main+0x1c62c>
    554a:	0f b6 95 ec fe ff ff 	movzbl -0x114(%rbp),%edx
    5551:	0f b6 85 12 ff ff ff 	movzbl -0xee(%rbp),%eax
    5558:	38 c2                	cmp    %al,%dl
    555a:	0f 86 2c 79 01 00    	jbe    1ce8c <main+0x1c632>
    5560:	0f b6 95 ec fe ff ff 	movzbl -0x114(%rbp),%edx
    5567:	0f b6 85 13 ff ff ff 	movzbl -0xed(%rbp),%eax
    556e:	38 c2                	cmp    %al,%dl
    5570:	0f 86 1c 79 01 00    	jbe    1ce92 <main+0x1c638>
    5576:	0f b6 95 ec fe ff ff 	movzbl -0x114(%rbp),%edx
    557d:	0f b6 85 14 ff ff ff 	movzbl -0xec(%rbp),%eax
    5584:	38 c2                	cmp    %al,%dl
    5586:	0f 83 0c 79 01 00    	jae    1ce98 <main+0x1c63e>
    558c:	0f b6 95 ec fe ff ff 	movzbl -0x114(%rbp),%edx
    5593:	0f b6 85 15 ff ff ff 	movzbl -0xeb(%rbp),%eax
    559a:	38 c2                	cmp    %al,%dl
    559c:	0f 83 fc 78 01 00    	jae    1ce9e <main+0x1c644>
    55a2:	0f b6 95 ec fe ff ff 	movzbl -0x114(%rbp),%edx
    55a9:	0f b6 85 16 ff ff ff 	movzbl -0xea(%rbp),%eax
    55b0:	38 c2                	cmp    %al,%dl
    55b2:	0f 83 ec 78 01 00    	jae    1cea4 <main+0x1c64a>
    55b8:	0f b6 95 ec fe ff ff 	movzbl -0x114(%rbp),%edx
    55bf:	0f b6 85 17 ff ff ff 	movzbl -0xe9(%rbp),%eax
    55c6:	38 c2                	cmp    %al,%dl
    55c8:	0f 83 dc 78 01 00    	jae    1ceaa <main+0x1c650>
    55ce:	0f b6 95 ec fe ff ff 	movzbl -0x114(%rbp),%edx
    55d5:	0f b6 85 18 ff ff ff 	movzbl -0xe8(%rbp),%eax
    55dc:	38 c2                	cmp    %al,%dl
    55de:	0f 86 cc 78 01 00    	jbe    1ceb0 <main+0x1c656>
    55e4:	0f b6 95 ec fe ff ff 	movzbl -0x114(%rbp),%edx
    55eb:	0f b6 85 19 ff ff ff 	movzbl -0xe7(%rbp),%eax
    55f2:	38 c2                	cmp    %al,%dl
    55f4:	0f 83 bc 78 01 00    	jae    1ceb6 <main+0x1c65c>
    55fa:	0f b6 95 ec fe ff ff 	movzbl -0x114(%rbp),%edx
    5601:	0f b6 85 1a ff ff ff 	movzbl -0xe6(%rbp),%eax
    5608:	38 c2                	cmp    %al,%dl
    560a:	0f 83 ac 78 01 00    	jae    1cebc <main+0x1c662>
    5610:	0f b6 95 ec fe ff ff 	movzbl -0x114(%rbp),%edx
    5617:	0f b6 85 1b ff ff ff 	movzbl -0xe5(%rbp),%eax
    561e:	38 c2                	cmp    %al,%dl
    5620:	0f 83 9c 78 01 00    	jae    1cec2 <main+0x1c668>
    5626:	0f b6 95 ec fe ff ff 	movzbl -0x114(%rbp),%edx
    562d:	0f b6 85 1c ff ff ff 	movzbl -0xe4(%rbp),%eax
    5634:	38 c2                	cmp    %al,%dl
    5636:	0f 83 8c 78 01 00    	jae    1cec8 <main+0x1c66e>
    563c:	0f b6 95 ec fe ff ff 	movzbl -0x114(%rbp),%edx
    5643:	0f b6 85 1d ff ff ff 	movzbl -0xe3(%rbp),%eax
    564a:	38 c2                	cmp    %al,%dl
    564c:	0f 86 7c 78 01 00    	jbe    1cece <main+0x1c674>
    5652:	0f b6 95 ec fe ff ff 	movzbl -0x114(%rbp),%edx
    5659:	0f b6 85 1e ff ff ff 	movzbl -0xe2(%rbp),%eax
    5660:	38 c2                	cmp    %al,%dl
    5662:	0f 83 6c 78 01 00    	jae    1ced4 <main+0x1c67a>
    5668:	0f b6 95 ec fe ff ff 	movzbl -0x114(%rbp),%edx
    566f:	0f b6 85 1f ff ff ff 	movzbl -0xe1(%rbp),%eax
    5676:	38 c2                	cmp    %al,%dl
    5678:	0f 86 5c 78 01 00    	jbe    1ceda <main+0x1c680>
    567e:	0f b6 95 ec fe ff ff 	movzbl -0x114(%rbp),%edx
    5685:	0f b6 85 20 ff ff ff 	movzbl -0xe0(%rbp),%eax
    568c:	38 c2                	cmp    %al,%dl
    568e:	0f 86 4c 78 01 00    	jbe    1cee0 <main+0x1c686>
    5694:	0f b6 95 ec fe ff ff 	movzbl -0x114(%rbp),%edx
    569b:	0f b6 85 21 ff ff ff 	movzbl -0xdf(%rbp),%eax
    56a2:	38 c2                	cmp    %al,%dl
    56a4:	0f 83 3c 78 01 00    	jae    1cee6 <main+0x1c68c>
    56aa:	0f b6 95 ec fe ff ff 	movzbl -0x114(%rbp),%edx
    56b1:	0f b6 85 22 ff ff ff 	movzbl -0xde(%rbp),%eax
    56b8:	38 c2                	cmp    %al,%dl
    56ba:	0f 86 2c 78 01 00    	jbe    1ceec <main+0x1c692>
    56c0:	0f b6 95 ec fe ff ff 	movzbl -0x114(%rbp),%edx
    56c7:	0f b6 85 23 ff ff ff 	movzbl -0xdd(%rbp),%eax
    56ce:	38 c2                	cmp    %al,%dl
    56d0:	0f 83 1c 78 01 00    	jae    1cef2 <main+0x1c698>
    56d6:	0f b6 95 ec fe ff ff 	movzbl -0x114(%rbp),%edx
    56dd:	0f b6 85 24 ff ff ff 	movzbl -0xdc(%rbp),%eax
    56e4:	38 c2                	cmp    %al,%dl
    56e6:	0f 83 0c 78 01 00    	jae    1cef8 <main+0x1c69e>
    56ec:	0f b6 95 ec fe ff ff 	movzbl -0x114(%rbp),%edx
    56f3:	0f b6 85 25 ff ff ff 	movzbl -0xdb(%rbp),%eax
    56fa:	38 c2                	cmp    %al,%dl
    56fc:	0f 83 fc 77 01 00    	jae    1cefe <main+0x1c6a4>
    5702:	0f b6 95 ec fe ff ff 	movzbl -0x114(%rbp),%edx
    5709:	0f b6 85 26 ff ff ff 	movzbl -0xda(%rbp),%eax
    5710:	38 c2                	cmp    %al,%dl
    5712:	0f 86 ec 77 01 00    	jbe    1cf04 <main+0x1c6aa>
    5718:	0f b6 95 ec fe ff ff 	movzbl -0x114(%rbp),%edx
    571f:	0f b6 85 27 ff ff ff 	movzbl -0xd9(%rbp),%eax
    5726:	38 c2                	cmp    %al,%dl
    5728:	0f 83 dc 77 01 00    	jae    1cf0a <main+0x1c6b0>
    572e:	0f b6 95 ec fe ff ff 	movzbl -0x114(%rbp),%edx
    5735:	0f b6 85 28 ff ff ff 	movzbl -0xd8(%rbp),%eax
    573c:	38 c2                	cmp    %al,%dl
    573e:	0f 83 cc 77 01 00    	jae    1cf10 <main+0x1c6b6>
    5744:	0f b6 95 ed fe ff ff 	movzbl -0x113(%rbp),%edx
    574b:	0f b6 85 e0 fe ff ff 	movzbl -0x120(%rbp),%eax
    5752:	38 c2                	cmp    %al,%dl
    5754:	0f 83 bc 77 01 00    	jae    1cf16 <main+0x1c6bc>
    575a:	0f b6 95 ed fe ff ff 	movzbl -0x113(%rbp),%edx
    5761:	0f b6 85 e1 fe ff ff 	movzbl -0x11f(%rbp),%eax
    5768:	38 c2                	cmp    %al,%dl
    576a:	0f 83 ac 77 01 00    	jae    1cf1c <main+0x1c6c2>
    5770:	0f b6 95 ed fe ff ff 	movzbl -0x113(%rbp),%edx
    5777:	0f b6 85 e2 fe ff ff 	movzbl -0x11e(%rbp),%eax
    577e:	38 c2                	cmp    %al,%dl
    5780:	0f 86 9c 77 01 00    	jbe    1cf22 <main+0x1c6c8>
    5786:	0f b6 95 ed fe ff ff 	movzbl -0x113(%rbp),%edx
    578d:	0f b6 85 e3 fe ff ff 	movzbl -0x11d(%rbp),%eax
    5794:	38 c2                	cmp    %al,%dl
    5796:	0f 83 8c 77 01 00    	jae    1cf28 <main+0x1c6ce>
    579c:	0f b6 95 ed fe ff ff 	movzbl -0x113(%rbp),%edx
    57a3:	0f b6 85 e4 fe ff ff 	movzbl -0x11c(%rbp),%eax
    57aa:	38 c2                	cmp    %al,%dl
    57ac:	0f 83 7c 77 01 00    	jae    1cf2e <main+0x1c6d4>
    57b2:	0f b6 95 ed fe ff ff 	movzbl -0x113(%rbp),%edx
    57b9:	0f b6 85 e5 fe ff ff 	movzbl -0x11b(%rbp),%eax
    57c0:	38 c2                	cmp    %al,%dl
    57c2:	0f 83 6c 77 01 00    	jae    1cf34 <main+0x1c6da>
    57c8:	0f b6 95 ed fe ff ff 	movzbl -0x113(%rbp),%edx
    57cf:	0f b6 85 e6 fe ff ff 	movzbl -0x11a(%rbp),%eax
    57d6:	38 c2                	cmp    %al,%dl
    57d8:	0f 83 5c 77 01 00    	jae    1cf3a <main+0x1c6e0>
    57de:	0f b6 95 ed fe ff ff 	movzbl -0x113(%rbp),%edx
    57e5:	0f b6 85 e7 fe ff ff 	movzbl -0x119(%rbp),%eax
    57ec:	38 c2                	cmp    %al,%dl
    57ee:	0f 83 4c 77 01 00    	jae    1cf40 <main+0x1c6e6>
    57f4:	0f b6 95 ed fe ff ff 	movzbl -0x113(%rbp),%edx
    57fb:	0f b6 85 e8 fe ff ff 	movzbl -0x118(%rbp),%eax
    5802:	38 c2                	cmp    %al,%dl
    5804:	0f 83 3c 77 01 00    	jae    1cf46 <main+0x1c6ec>
    580a:	0f b6 95 ed fe ff ff 	movzbl -0x113(%rbp),%edx
    5811:	0f b6 85 e9 fe ff ff 	movzbl -0x117(%rbp),%eax
    5818:	38 c2                	cmp    %al,%dl
    581a:	0f 83 2c 77 01 00    	jae    1cf4c <main+0x1c6f2>
    5820:	0f b6 95 ed fe ff ff 	movzbl -0x113(%rbp),%edx
    5827:	0f b6 85 ea fe ff ff 	movzbl -0x116(%rbp),%eax
    582e:	38 c2                	cmp    %al,%dl
    5830:	0f 83 1c 77 01 00    	jae    1cf52 <main+0x1c6f8>
    5836:	0f b6 95 ed fe ff ff 	movzbl -0x113(%rbp),%edx
    583d:	0f b6 85 eb fe ff ff 	movzbl -0x115(%rbp),%eax
    5844:	38 c2                	cmp    %al,%dl
    5846:	0f 83 0c 77 01 00    	jae    1cf58 <main+0x1c6fe>
    584c:	0f b6 95 ed fe ff ff 	movzbl -0x113(%rbp),%edx
    5853:	0f b6 85 ec fe ff ff 	movzbl -0x114(%rbp),%eax
    585a:	38 c2                	cmp    %al,%dl
    585c:	0f 83 fc 76 01 00    	jae    1cf5e <main+0x1c704>
    5862:	0f b6 95 ed fe ff ff 	movzbl -0x113(%rbp),%edx
    5869:	0f b6 85 ee fe ff ff 	movzbl -0x112(%rbp),%eax
    5870:	38 c2                	cmp    %al,%dl
    5872:	0f 83 ec 76 01 00    	jae    1cf64 <main+0x1c70a>
    5878:	0f b6 95 ed fe ff ff 	movzbl -0x113(%rbp),%edx
    587f:	0f b6 85 ef fe ff ff 	movzbl -0x111(%rbp),%eax
    5886:	38 c2                	cmp    %al,%dl
    5888:	0f 83 dc 76 01 00    	jae    1cf6a <main+0x1c710>
    588e:	0f b6 95 ed fe ff ff 	movzbl -0x113(%rbp),%edx
    5895:	0f b6 85 f0 fe ff ff 	movzbl -0x110(%rbp),%eax
    589c:	38 c2                	cmp    %al,%dl
    589e:	0f 83 cc 76 01 00    	jae    1cf70 <main+0x1c716>
    58a4:	0f b6 95 ed fe ff ff 	movzbl -0x113(%rbp),%edx
    58ab:	0f b6 85 f1 fe ff ff 	movzbl -0x10f(%rbp),%eax
    58b2:	38 c2                	cmp    %al,%dl
    58b4:	0f 83 bc 76 01 00    	jae    1cf76 <main+0x1c71c>
    58ba:	0f b6 95 ed fe ff ff 	movzbl -0x113(%rbp),%edx
    58c1:	0f b6 85 f2 fe ff ff 	movzbl -0x10e(%rbp),%eax
    58c8:	38 c2                	cmp    %al,%dl
    58ca:	0f 83 ac 76 01 00    	jae    1cf7c <main+0x1c722>
    58d0:	0f b6 95 ed fe ff ff 	movzbl -0x113(%rbp),%edx
    58d7:	0f b6 85 f3 fe ff ff 	movzbl -0x10d(%rbp),%eax
    58de:	38 c2                	cmp    %al,%dl
    58e0:	0f 83 9c 76 01 00    	jae    1cf82 <main+0x1c728>
    58e6:	0f b6 95 ed fe ff ff 	movzbl -0x113(%rbp),%edx
    58ed:	0f b6 85 f4 fe ff ff 	movzbl -0x10c(%rbp),%eax
    58f4:	38 c2                	cmp    %al,%dl
    58f6:	0f 83 8c 76 01 00    	jae    1cf88 <main+0x1c72e>
    58fc:	0f b6 95 ed fe ff ff 	movzbl -0x113(%rbp),%edx
    5903:	0f b6 85 f5 fe ff ff 	movzbl -0x10b(%rbp),%eax
    590a:	38 c2                	cmp    %al,%dl
    590c:	0f 83 7c 76 01 00    	jae    1cf8e <main+0x1c734>
    5912:	0f b6 95 ed fe ff ff 	movzbl -0x113(%rbp),%edx
    5919:	0f b6 85 f6 fe ff ff 	movzbl -0x10a(%rbp),%eax
    5920:	38 c2                	cmp    %al,%dl
    5922:	0f 83 6c 76 01 00    	jae    1cf94 <main+0x1c73a>
    5928:	0f b6 95 ed fe ff ff 	movzbl -0x113(%rbp),%edx
    592f:	0f b6 85 f7 fe ff ff 	movzbl -0x109(%rbp),%eax
    5936:	38 c2                	cmp    %al,%dl
    5938:	0f 83 5c 76 01 00    	jae    1cf9a <main+0x1c740>
    593e:	0f b6 95 ed fe ff ff 	movzbl -0x113(%rbp),%edx
    5945:	0f b6 85 f8 fe ff ff 	movzbl -0x108(%rbp),%eax
    594c:	38 c2                	cmp    %al,%dl
    594e:	0f 83 4c 76 01 00    	jae    1cfa0 <main+0x1c746>
    5954:	0f b6 95 ed fe ff ff 	movzbl -0x113(%rbp),%edx
    595b:	0f b6 85 f9 fe ff ff 	movzbl -0x107(%rbp),%eax
    5962:	38 c2                	cmp    %al,%dl
    5964:	0f 83 3c 76 01 00    	jae    1cfa6 <main+0x1c74c>
    596a:	0f b6 95 ed fe ff ff 	movzbl -0x113(%rbp),%edx
    5971:	0f b6 85 fa fe ff ff 	movzbl -0x106(%rbp),%eax
    5978:	38 c2                	cmp    %al,%dl
    597a:	0f 83 2c 76 01 00    	jae    1cfac <main+0x1c752>
    5980:	0f b6 95 ed fe ff ff 	movzbl -0x113(%rbp),%edx
    5987:	0f b6 85 fb fe ff ff 	movzbl -0x105(%rbp),%eax
    598e:	38 c2                	cmp    %al,%dl
    5990:	0f 83 1c 76 01 00    	jae    1cfb2 <main+0x1c758>
    5996:	0f b6 95 ed fe ff ff 	movzbl -0x113(%rbp),%edx
    599d:	0f b6 85 fc fe ff ff 	movzbl -0x104(%rbp),%eax
    59a4:	38 c2                	cmp    %al,%dl
    59a6:	0f 83 0c 76 01 00    	jae    1cfb8 <main+0x1c75e>
    59ac:	0f b6 95 ed fe ff ff 	movzbl -0x113(%rbp),%edx
    59b3:	0f b6 85 fd fe ff ff 	movzbl -0x103(%rbp),%eax
    59ba:	38 c2                	cmp    %al,%dl
    59bc:	0f 83 fc 75 01 00    	jae    1cfbe <main+0x1c764>
    59c2:	0f b6 95 ed fe ff ff 	movzbl -0x113(%rbp),%edx
    59c9:	0f b6 85 fe fe ff ff 	movzbl -0x102(%rbp),%eax
    59d0:	38 c2                	cmp    %al,%dl
    59d2:	0f 83 ec 75 01 00    	jae    1cfc4 <main+0x1c76a>
    59d8:	0f b6 95 ed fe ff ff 	movzbl -0x113(%rbp),%edx
    59df:	0f b6 85 ff fe ff ff 	movzbl -0x101(%rbp),%eax
    59e6:	38 c2                	cmp    %al,%dl
    59e8:	0f 83 dc 75 01 00    	jae    1cfca <main+0x1c770>
    59ee:	0f b6 95 ed fe ff ff 	movzbl -0x113(%rbp),%edx
    59f5:	0f b6 85 00 ff ff ff 	movzbl -0x100(%rbp),%eax
    59fc:	38 c2                	cmp    %al,%dl
    59fe:	0f 83 cc 75 01 00    	jae    1cfd0 <main+0x1c776>
    5a04:	0f b6 95 ed fe ff ff 	movzbl -0x113(%rbp),%edx
    5a0b:	0f b6 85 01 ff ff ff 	movzbl -0xff(%rbp),%eax
    5a12:	38 c2                	cmp    %al,%dl
    5a14:	0f 83 bc 75 01 00    	jae    1cfd6 <main+0x1c77c>
    5a1a:	0f b6 95 ed fe ff ff 	movzbl -0x113(%rbp),%edx
    5a21:	0f b6 85 02 ff ff ff 	movzbl -0xfe(%rbp),%eax
    5a28:	38 c2                	cmp    %al,%dl
    5a2a:	0f 83 ac 75 01 00    	jae    1cfdc <main+0x1c782>
    5a30:	0f b6 95 ed fe ff ff 	movzbl -0x113(%rbp),%edx
    5a37:	0f b6 85 03 ff ff ff 	movzbl -0xfd(%rbp),%eax
    5a3e:	38 c2                	cmp    %al,%dl
    5a40:	0f 86 9c 75 01 00    	jbe    1cfe2 <main+0x1c788>
    5a46:	0f b6 95 ed fe ff ff 	movzbl -0x113(%rbp),%edx
    5a4d:	0f b6 85 04 ff ff ff 	movzbl -0xfc(%rbp),%eax
    5a54:	38 c2                	cmp    %al,%dl
    5a56:	0f 83 8c 75 01 00    	jae    1cfe8 <main+0x1c78e>
    5a5c:	0f b6 95 ed fe ff ff 	movzbl -0x113(%rbp),%edx
    5a63:	0f b6 85 05 ff ff ff 	movzbl -0xfb(%rbp),%eax
    5a6a:	38 c2                	cmp    %al,%dl
    5a6c:	0f 83 7c 75 01 00    	jae    1cfee <main+0x1c794>
    5a72:	0f b6 95 ed fe ff ff 	movzbl -0x113(%rbp),%edx
    5a79:	0f b6 85 06 ff ff ff 	movzbl -0xfa(%rbp),%eax
    5a80:	38 c2                	cmp    %al,%dl
    5a82:	0f 83 6c 75 01 00    	jae    1cff4 <main+0x1c79a>
    5a88:	0f b6 95 ed fe ff ff 	movzbl -0x113(%rbp),%edx
    5a8f:	0f b6 85 07 ff ff ff 	movzbl -0xf9(%rbp),%eax
    5a96:	38 c2                	cmp    %al,%dl
    5a98:	0f 83 5c 75 01 00    	jae    1cffa <main+0x1c7a0>
    5a9e:	0f b6 95 ed fe ff ff 	movzbl -0x113(%rbp),%edx
    5aa5:	0f b6 85 08 ff ff ff 	movzbl -0xf8(%rbp),%eax
    5aac:	38 c2                	cmp    %al,%dl
    5aae:	0f 83 4c 75 01 00    	jae    1d000 <main+0x1c7a6>
    5ab4:	0f b6 95 ed fe ff ff 	movzbl -0x113(%rbp),%edx
    5abb:	0f b6 85 09 ff ff ff 	movzbl -0xf7(%rbp),%eax
    5ac2:	38 c2                	cmp    %al,%dl
    5ac4:	0f 86 3c 75 01 00    	jbe    1d006 <main+0x1c7ac>
    5aca:	0f b6 95 ed fe ff ff 	movzbl -0x113(%rbp),%edx
    5ad1:	0f b6 85 0a ff ff ff 	movzbl -0xf6(%rbp),%eax
    5ad8:	38 c2                	cmp    %al,%dl
    5ada:	0f 83 2c 75 01 00    	jae    1d00c <main+0x1c7b2>
    5ae0:	0f b6 95 ed fe ff ff 	movzbl -0x113(%rbp),%edx
    5ae7:	0f b6 85 0b ff ff ff 	movzbl -0xf5(%rbp),%eax
    5aee:	38 c2                	cmp    %al,%dl
    5af0:	0f 83 1c 75 01 00    	jae    1d012 <main+0x1c7b8>
    5af6:	0f b6 95 ed fe ff ff 	movzbl -0x113(%rbp),%edx
    5afd:	0f b6 85 0c ff ff ff 	movzbl -0xf4(%rbp),%eax
    5b04:	38 c2                	cmp    %al,%dl
    5b06:	0f 83 0c 75 01 00    	jae    1d018 <main+0x1c7be>
    5b0c:	0f b6 95 ed fe ff ff 	movzbl -0x113(%rbp),%edx
    5b13:	0f b6 85 0d ff ff ff 	movzbl -0xf3(%rbp),%eax
    5b1a:	38 c2                	cmp    %al,%dl
    5b1c:	0f 83 fc 74 01 00    	jae    1d01e <main+0x1c7c4>
    5b22:	0f b6 95 ed fe ff ff 	movzbl -0x113(%rbp),%edx
    5b29:	0f b6 85 0e ff ff ff 	movzbl -0xf2(%rbp),%eax
    5b30:	38 c2                	cmp    %al,%dl
    5b32:	0f 86 ec 74 01 00    	jbe    1d024 <main+0x1c7ca>
    5b38:	0f b6 95 ed fe ff ff 	movzbl -0x113(%rbp),%edx
    5b3f:	0f b6 85 0f ff ff ff 	movzbl -0xf1(%rbp),%eax
    5b46:	38 c2                	cmp    %al,%dl
    5b48:	0f 83 dc 74 01 00    	jae    1d02a <main+0x1c7d0>
    5b4e:	0f b6 95 ed fe ff ff 	movzbl -0x113(%rbp),%edx
    5b55:	0f b6 85 10 ff ff ff 	movzbl -0xf0(%rbp),%eax
    5b5c:	38 c2                	cmp    %al,%dl
    5b5e:	0f 83 cc 74 01 00    	jae    1d030 <main+0x1c7d6>
    5b64:	0f b6 95 ed fe ff ff 	movzbl -0x113(%rbp),%edx
    5b6b:	0f b6 85 11 ff ff ff 	movzbl -0xef(%rbp),%eax
    5b72:	38 c2                	cmp    %al,%dl
    5b74:	0f 83 bc 74 01 00    	jae    1d036 <main+0x1c7dc>
    5b7a:	0f b6 95 ed fe ff ff 	movzbl -0x113(%rbp),%edx
    5b81:	0f b6 85 12 ff ff ff 	movzbl -0xee(%rbp),%eax
    5b88:	38 c2                	cmp    %al,%dl
    5b8a:	0f 83 ac 74 01 00    	jae    1d03c <main+0x1c7e2>
    5b90:	0f b6 95 ed fe ff ff 	movzbl -0x113(%rbp),%edx
    5b97:	0f b6 85 13 ff ff ff 	movzbl -0xed(%rbp),%eax
    5b9e:	38 c2                	cmp    %al,%dl
    5ba0:	0f 83 9c 74 01 00    	jae    1d042 <main+0x1c7e8>
    5ba6:	0f b6 95 ed fe ff ff 	movzbl -0x113(%rbp),%edx
    5bad:	0f b6 85 14 ff ff ff 	movzbl -0xec(%rbp),%eax
    5bb4:	38 c2                	cmp    %al,%dl
    5bb6:	0f 83 8c 74 01 00    	jae    1d048 <main+0x1c7ee>
    5bbc:	0f b6 95 ed fe ff ff 	movzbl -0x113(%rbp),%edx
    5bc3:	0f b6 85 15 ff ff ff 	movzbl -0xeb(%rbp),%eax
    5bca:	38 c2                	cmp    %al,%dl
    5bcc:	0f 83 7c 74 01 00    	jae    1d04e <main+0x1c7f4>
    5bd2:	0f b6 95 ed fe ff ff 	movzbl -0x113(%rbp),%edx
    5bd9:	0f b6 85 16 ff ff ff 	movzbl -0xea(%rbp),%eax
    5be0:	38 c2                	cmp    %al,%dl
    5be2:	0f 83 6c 74 01 00    	jae    1d054 <main+0x1c7fa>
    5be8:	0f b6 95 ed fe ff ff 	movzbl -0x113(%rbp),%edx
    5bef:	0f b6 85 17 ff ff ff 	movzbl -0xe9(%rbp),%eax
    5bf6:	38 c2                	cmp    %al,%dl
    5bf8:	0f 83 5c 74 01 00    	jae    1d05a <main+0x1c800>
    5bfe:	0f b6 95 ed fe ff ff 	movzbl -0x113(%rbp),%edx
    5c05:	0f b6 85 18 ff ff ff 	movzbl -0xe8(%rbp),%eax
    5c0c:	38 c2                	cmp    %al,%dl
    5c0e:	0f 86 4c 74 01 00    	jbe    1d060 <main+0x1c806>
    5c14:	0f b6 95 ed fe ff ff 	movzbl -0x113(%rbp),%edx
    5c1b:	0f b6 85 19 ff ff ff 	movzbl -0xe7(%rbp),%eax
    5c22:	38 c2                	cmp    %al,%dl
    5c24:	0f 83 3c 74 01 00    	jae    1d066 <main+0x1c80c>
    5c2a:	0f b6 95 ed fe ff ff 	movzbl -0x113(%rbp),%edx
    5c31:	0f b6 85 1a ff ff ff 	movzbl -0xe6(%rbp),%eax
    5c38:	38 c2                	cmp    %al,%dl
    5c3a:	0f 83 2c 74 01 00    	jae    1d06c <main+0x1c812>
    5c40:	0f b6 95 ed fe ff ff 	movzbl -0x113(%rbp),%edx
    5c47:	0f b6 85 1b ff ff ff 	movzbl -0xe5(%rbp),%eax
    5c4e:	38 c2                	cmp    %al,%dl
    5c50:	0f 83 1c 74 01 00    	jae    1d072 <main+0x1c818>
    5c56:	0f b6 95 ed fe ff ff 	movzbl -0x113(%rbp),%edx
    5c5d:	0f b6 85 1c ff ff ff 	movzbl -0xe4(%rbp),%eax
    5c64:	38 c2                	cmp    %al,%dl
    5c66:	0f 83 0c 74 01 00    	jae    1d078 <main+0x1c81e>
    5c6c:	0f b6 95 ed fe ff ff 	movzbl -0x113(%rbp),%edx
    5c73:	0f b6 85 1d ff ff ff 	movzbl -0xe3(%rbp),%eax
    5c7a:	38 c2                	cmp    %al,%dl
    5c7c:	0f 86 fc 73 01 00    	jbe    1d07e <main+0x1c824>
    5c82:	0f b6 95 ed fe ff ff 	movzbl -0x113(%rbp),%edx
    5c89:	0f b6 85 1e ff ff ff 	movzbl -0xe2(%rbp),%eax
    5c90:	38 c2                	cmp    %al,%dl
    5c92:	0f 83 ec 73 01 00    	jae    1d084 <main+0x1c82a>
    5c98:	0f b6 95 ed fe ff ff 	movzbl -0x113(%rbp),%edx
    5c9f:	0f b6 85 1f ff ff ff 	movzbl -0xe1(%rbp),%eax
    5ca6:	38 c2                	cmp    %al,%dl
    5ca8:	0f 83 dc 73 01 00    	jae    1d08a <main+0x1c830>
    5cae:	0f b6 95 ed fe ff ff 	movzbl -0x113(%rbp),%edx
    5cb5:	0f b6 85 20 ff ff ff 	movzbl -0xe0(%rbp),%eax
    5cbc:	38 c2                	cmp    %al,%dl
    5cbe:	0f 86 cc 73 01 00    	jbe    1d090 <main+0x1c836>
    5cc4:	0f b6 95 ed fe ff ff 	movzbl -0x113(%rbp),%edx
    5ccb:	0f b6 85 21 ff ff ff 	movzbl -0xdf(%rbp),%eax
    5cd2:	38 c2                	cmp    %al,%dl
    5cd4:	0f 83 bc 73 01 00    	jae    1d096 <main+0x1c83c>
    5cda:	0f b6 95 ed fe ff ff 	movzbl -0x113(%rbp),%edx
    5ce1:	0f b6 85 22 ff ff ff 	movzbl -0xde(%rbp),%eax
    5ce8:	38 c2                	cmp    %al,%dl
    5cea:	0f 86 ac 73 01 00    	jbe    1d09c <main+0x1c842>
    5cf0:	0f b6 95 ed fe ff ff 	movzbl -0x113(%rbp),%edx
    5cf7:	0f b6 85 23 ff ff ff 	movzbl -0xdd(%rbp),%eax
    5cfe:	38 c2                	cmp    %al,%dl
    5d00:	0f 83 9c 73 01 00    	jae    1d0a2 <main+0x1c848>
    5d06:	0f b6 95 ed fe ff ff 	movzbl -0x113(%rbp),%edx
    5d0d:	0f b6 85 24 ff ff ff 	movzbl -0xdc(%rbp),%eax
    5d14:	38 c2                	cmp    %al,%dl
    5d16:	0f 83 8c 73 01 00    	jae    1d0a8 <main+0x1c84e>
    5d1c:	0f b6 95 ed fe ff ff 	movzbl -0x113(%rbp),%edx
    5d23:	0f b6 85 25 ff ff ff 	movzbl -0xdb(%rbp),%eax
    5d2a:	38 c2                	cmp    %al,%dl
    5d2c:	0f 83 7c 73 01 00    	jae    1d0ae <main+0x1c854>
    5d32:	0f b6 95 ed fe ff ff 	movzbl -0x113(%rbp),%edx
    5d39:	0f b6 85 26 ff ff ff 	movzbl -0xda(%rbp),%eax
    5d40:	38 c2                	cmp    %al,%dl
    5d42:	0f 83 6c 73 01 00    	jae    1d0b4 <main+0x1c85a>
    5d48:	0f b6 95 ed fe ff ff 	movzbl -0x113(%rbp),%edx
    5d4f:	0f b6 85 27 ff ff ff 	movzbl -0xd9(%rbp),%eax
    5d56:	38 c2                	cmp    %al,%dl
    5d58:	0f 83 5c 73 01 00    	jae    1d0ba <main+0x1c860>
    5d5e:	0f b6 95 ed fe ff ff 	movzbl -0x113(%rbp),%edx
    5d65:	0f b6 85 28 ff ff ff 	movzbl -0xd8(%rbp),%eax
    5d6c:	38 c2                	cmp    %al,%dl
    5d6e:	0f 83 4c 73 01 00    	jae    1d0c0 <main+0x1c866>
    5d74:	0f b6 95 ee fe ff ff 	movzbl -0x112(%rbp),%edx
    5d7b:	0f b6 85 e0 fe ff ff 	movzbl -0x120(%rbp),%eax
    5d82:	38 c2                	cmp    %al,%dl
    5d84:	0f 86 3c 73 01 00    	jbe    1d0c6 <main+0x1c86c>
    5d8a:	0f b6 95 ee fe ff ff 	movzbl -0x112(%rbp),%edx
    5d91:	0f b6 85 e1 fe ff ff 	movzbl -0x11f(%rbp),%eax
    5d98:	38 c2                	cmp    %al,%dl
    5d9a:	0f 86 2c 73 01 00    	jbe    1d0cc <main+0x1c872>
    5da0:	0f b6 95 ee fe ff ff 	movzbl -0x112(%rbp),%edx
    5da7:	0f b6 85 e2 fe ff ff 	movzbl -0x11e(%rbp),%eax
    5dae:	38 c2                	cmp    %al,%dl
    5db0:	0f 86 1c 73 01 00    	jbe    1d0d2 <main+0x1c878>
    5db6:	0f b6 95 ee fe ff ff 	movzbl -0x112(%rbp),%edx
    5dbd:	0f b6 85 e3 fe ff ff 	movzbl -0x11d(%rbp),%eax
    5dc4:	38 c2                	cmp    %al,%dl
    5dc6:	0f 86 0c 73 01 00    	jbe    1d0d8 <main+0x1c87e>
    5dcc:	0f b6 95 ee fe ff ff 	movzbl -0x112(%rbp),%edx
    5dd3:	0f b6 85 e4 fe ff ff 	movzbl -0x11c(%rbp),%eax
    5dda:	38 c2                	cmp    %al,%dl
    5ddc:	0f 83 fc 72 01 00    	jae    1d0de <main+0x1c884>
    5de2:	0f b6 95 ee fe ff ff 	movzbl -0x112(%rbp),%edx
    5de9:	0f b6 85 e5 fe ff ff 	movzbl -0x11b(%rbp),%eax
    5df0:	38 c2                	cmp    %al,%dl
    5df2:	0f 83 ec 72 01 00    	jae    1d0e4 <main+0x1c88a>
    5df8:	0f b6 95 ee fe ff ff 	movzbl -0x112(%rbp),%edx
    5dff:	0f b6 85 e6 fe ff ff 	movzbl -0x11a(%rbp),%eax
    5e06:	38 c2                	cmp    %al,%dl
    5e08:	0f 86 dc 72 01 00    	jbe    1d0ea <main+0x1c890>
    5e0e:	0f b6 95 ee fe ff ff 	movzbl -0x112(%rbp),%edx
    5e15:	0f b6 85 e7 fe ff ff 	movzbl -0x119(%rbp),%eax
    5e1c:	38 c2                	cmp    %al,%dl
    5e1e:	0f 86 cc 72 01 00    	jbe    1d0f0 <main+0x1c896>
    5e24:	0f b6 95 ee fe ff ff 	movzbl -0x112(%rbp),%edx
    5e2b:	0f b6 85 e8 fe ff ff 	movzbl -0x118(%rbp),%eax
    5e32:	38 c2                	cmp    %al,%dl
    5e34:	0f 86 bc 72 01 00    	jbe    1d0f6 <main+0x1c89c>
    5e3a:	0f b6 95 ee fe ff ff 	movzbl -0x112(%rbp),%edx
    5e41:	0f b6 85 e9 fe ff ff 	movzbl -0x117(%rbp),%eax
    5e48:	38 c2                	cmp    %al,%dl
    5e4a:	0f 83 ac 72 01 00    	jae    1d0fc <main+0x1c8a2>
    5e50:	0f b6 95 ee fe ff ff 	movzbl -0x112(%rbp),%edx
    5e57:	0f b6 85 ea fe ff ff 	movzbl -0x116(%rbp),%eax
    5e5e:	38 c2                	cmp    %al,%dl
    5e60:	0f 86 9c 72 01 00    	jbe    1d102 <main+0x1c8a8>
    5e66:	0f b6 95 ee fe ff ff 	movzbl -0x112(%rbp),%edx
    5e6d:	0f b6 85 eb fe ff ff 	movzbl -0x115(%rbp),%eax
    5e74:	38 c2                	cmp    %al,%dl
    5e76:	0f 86 8c 72 01 00    	jbe    1d108 <main+0x1c8ae>
    5e7c:	0f b6 95 ee fe ff ff 	movzbl -0x112(%rbp),%edx
    5e83:	0f b6 85 ec fe ff ff 	movzbl -0x114(%rbp),%eax
    5e8a:	38 c2                	cmp    %al,%dl
    5e8c:	0f 86 7c 72 01 00    	jbe    1d10e <main+0x1c8b4>
    5e92:	0f b6 95 ee fe ff ff 	movzbl -0x112(%rbp),%edx
    5e99:	0f b6 85 ed fe ff ff 	movzbl -0x113(%rbp),%eax
    5ea0:	38 c2                	cmp    %al,%dl
    5ea2:	0f 86 6c 72 01 00    	jbe    1d114 <main+0x1c8ba>
    5ea8:	0f b6 95 ee fe ff ff 	movzbl -0x112(%rbp),%edx
    5eaf:	0f b6 85 ef fe ff ff 	movzbl -0x111(%rbp),%eax
    5eb6:	38 c2                	cmp    %al,%dl
    5eb8:	0f 86 5c 72 01 00    	jbe    1d11a <main+0x1c8c0>
    5ebe:	0f b6 95 ee fe ff ff 	movzbl -0x112(%rbp),%edx
    5ec5:	0f b6 85 f0 fe ff ff 	movzbl -0x110(%rbp),%eax
    5ecc:	38 c2                	cmp    %al,%dl
    5ece:	0f 83 4c 72 01 00    	jae    1d120 <main+0x1c8c6>
    5ed4:	0f b6 95 ee fe ff ff 	movzbl -0x112(%rbp),%edx
    5edb:	0f b6 85 f1 fe ff ff 	movzbl -0x10f(%rbp),%eax
    5ee2:	38 c2                	cmp    %al,%dl
    5ee4:	0f 86 3c 72 01 00    	jbe    1d126 <main+0x1c8cc>
    5eea:	0f b6 95 ee fe ff ff 	movzbl -0x112(%rbp),%edx
    5ef1:	0f b6 85 f2 fe ff ff 	movzbl -0x10e(%rbp),%eax
    5ef8:	38 c2                	cmp    %al,%dl
    5efa:	0f 86 2c 72 01 00    	jbe    1d12c <main+0x1c8d2>
    5f00:	0f b6 95 ee fe ff ff 	movzbl -0x112(%rbp),%edx
    5f07:	0f b6 85 f3 fe ff ff 	movzbl -0x10d(%rbp),%eax
    5f0e:	38 c2                	cmp    %al,%dl
    5f10:	0f 86 1c 72 01 00    	jbe    1d132 <main+0x1c8d8>
    5f16:	0f b6 95 ee fe ff ff 	movzbl -0x112(%rbp),%edx
    5f1d:	0f b6 85 f4 fe ff ff 	movzbl -0x10c(%rbp),%eax
    5f24:	38 c2                	cmp    %al,%dl
    5f26:	0f 83 0c 72 01 00    	jae    1d138 <main+0x1c8de>
    5f2c:	0f b6 95 ee fe ff ff 	movzbl -0x112(%rbp),%edx
    5f33:	0f b6 85 f5 fe ff ff 	movzbl -0x10b(%rbp),%eax
    5f3a:	38 c2                	cmp    %al,%dl
    5f3c:	0f 86 fc 71 01 00    	jbe    1d13e <main+0x1c8e4>
    5f42:	0f b6 95 ee fe ff ff 	movzbl -0x112(%rbp),%edx
    5f49:	0f b6 85 f6 fe ff ff 	movzbl -0x10a(%rbp),%eax
    5f50:	38 c2                	cmp    %al,%dl
    5f52:	0f 83 ec 71 01 00    	jae    1d144 <main+0x1c8ea>
    5f58:	0f b6 95 ee fe ff ff 	movzbl -0x112(%rbp),%edx
    5f5f:	0f b6 85 f7 fe ff ff 	movzbl -0x109(%rbp),%eax
    5f66:	38 c2                	cmp    %al,%dl
    5f68:	0f 86 dc 71 01 00    	jbe    1d14a <main+0x1c8f0>
    5f6e:	0f b6 95 ee fe ff ff 	movzbl -0x112(%rbp),%edx
    5f75:	0f b6 85 f8 fe ff ff 	movzbl -0x108(%rbp),%eax
    5f7c:	38 c2                	cmp    %al,%dl
    5f7e:	0f 86 cc 71 01 00    	jbe    1d150 <main+0x1c8f6>
    5f84:	0f b6 95 ee fe ff ff 	movzbl -0x112(%rbp),%edx
    5f8b:	0f b6 85 f9 fe ff ff 	movzbl -0x107(%rbp),%eax
    5f92:	38 c2                	cmp    %al,%dl
    5f94:	0f 86 bc 71 01 00    	jbe    1d156 <main+0x1c8fc>
    5f9a:	0f b6 95 ee fe ff ff 	movzbl -0x112(%rbp),%edx
    5fa1:	0f b6 85 fa fe ff ff 	movzbl -0x106(%rbp),%eax
    5fa8:	38 c2                	cmp    %al,%dl
    5faa:	0f 86 ac 71 01 00    	jbe    1d15c <main+0x1c902>
    5fb0:	0f b6 95 ee fe ff ff 	movzbl -0x112(%rbp),%edx
    5fb7:	0f b6 85 fb fe ff ff 	movzbl -0x105(%rbp),%eax
    5fbe:	38 c2                	cmp    %al,%dl
    5fc0:	0f 86 9c 71 01 00    	jbe    1d162 <main+0x1c908>
    5fc6:	0f b6 95 ee fe ff ff 	movzbl -0x112(%rbp),%edx
    5fcd:	0f b6 85 fc fe ff ff 	movzbl -0x104(%rbp),%eax
    5fd4:	38 c2                	cmp    %al,%dl
    5fd6:	0f 83 8c 71 01 00    	jae    1d168 <main+0x1c90e>
    5fdc:	0f b6 95 ee fe ff ff 	movzbl -0x112(%rbp),%edx
    5fe3:	0f b6 85 fd fe ff ff 	movzbl -0x103(%rbp),%eax
    5fea:	38 c2                	cmp    %al,%dl
    5fec:	0f 86 7c 71 01 00    	jbe    1d16e <main+0x1c914>
    5ff2:	0f b6 95 ee fe ff ff 	movzbl -0x112(%rbp),%edx
    5ff9:	0f b6 85 ff fe ff ff 	movzbl -0x101(%rbp),%eax
    6000:	38 c2                	cmp    %al,%dl
    6002:	0f 83 6c 71 01 00    	jae    1d174 <main+0x1c91a>
    6008:	0f b6 95 ee fe ff ff 	movzbl -0x112(%rbp),%edx
    600f:	0f b6 85 00 ff ff ff 	movzbl -0x100(%rbp),%eax
    6016:	38 c2                	cmp    %al,%dl
    6018:	0f 86 5c 71 01 00    	jbe    1d17a <main+0x1c920>
    601e:	0f b6 95 ee fe ff ff 	movzbl -0x112(%rbp),%edx
    6025:	0f b6 85 01 ff ff ff 	movzbl -0xff(%rbp),%eax
    602c:	38 c2                	cmp    %al,%dl
    602e:	0f 86 4c 71 01 00    	jbe    1d180 <main+0x1c926>
    6034:	0f b6 95 ee fe ff ff 	movzbl -0x112(%rbp),%edx
    603b:	0f b6 85 02 ff ff ff 	movzbl -0xfe(%rbp),%eax
    6042:	38 c2                	cmp    %al,%dl
    6044:	0f 86 3c 71 01 00    	jbe    1d186 <main+0x1c92c>
    604a:	0f b6 95 ee fe ff ff 	movzbl -0x112(%rbp),%edx
    6051:	0f b6 85 03 ff ff ff 	movzbl -0xfd(%rbp),%eax
    6058:	38 c2                	cmp    %al,%dl
    605a:	0f 86 2c 71 01 00    	jbe    1d18c <main+0x1c932>
    6060:	0f b6 95 ee fe ff ff 	movzbl -0x112(%rbp),%edx
    6067:	0f b6 85 04 ff ff ff 	movzbl -0xfc(%rbp),%eax
    606e:	38 c2                	cmp    %al,%dl
    6070:	0f 83 1c 71 01 00    	jae    1d192 <main+0x1c938>
    6076:	0f b6 95 ee fe ff ff 	movzbl -0x112(%rbp),%edx
    607d:	0f b6 85 05 ff ff ff 	movzbl -0xfb(%rbp),%eax
    6084:	38 c2                	cmp    %al,%dl
    6086:	0f 83 0c 71 01 00    	jae    1d198 <main+0x1c93e>
    608c:	0f b6 95 ee fe ff ff 	movzbl -0x112(%rbp),%edx
    6093:	0f b6 85 06 ff ff ff 	movzbl -0xfa(%rbp),%eax
    609a:	38 c2                	cmp    %al,%dl
    609c:	0f 86 fc 70 01 00    	jbe    1d19e <main+0x1c944>
    60a2:	0f b6 95 ee fe ff ff 	movzbl -0x112(%rbp),%edx
    60a9:	0f b6 85 07 ff ff ff 	movzbl -0xf9(%rbp),%eax
    60b0:	38 c2                	cmp    %al,%dl
    60b2:	0f 86 ec 70 01 00    	jbe    1d1a4 <main+0x1c94a>
    60b8:	0f b6 95 ee fe ff ff 	movzbl -0x112(%rbp),%edx
    60bf:	0f b6 85 08 ff ff ff 	movzbl -0xf8(%rbp),%eax
    60c6:	38 c2                	cmp    %al,%dl
    60c8:	0f 86 dc 70 01 00    	jbe    1d1aa <main+0x1c950>
    60ce:	0f b6 95 ee fe ff ff 	movzbl -0x112(%rbp),%edx
    60d5:	0f b6 85 09 ff ff ff 	movzbl -0xf7(%rbp),%eax
    60dc:	38 c2                	cmp    %al,%dl
    60de:	0f 86 cc 70 01 00    	jbe    1d1b0 <main+0x1c956>
    60e4:	0f b6 95 ee fe ff ff 	movzbl -0x112(%rbp),%edx
    60eb:	0f b6 85 0a ff ff ff 	movzbl -0xf6(%rbp),%eax
    60f2:	38 c2                	cmp    %al,%dl
    60f4:	0f 86 bc 70 01 00    	jbe    1d1b6 <main+0x1c95c>
    60fa:	0f b6 95 ee fe ff ff 	movzbl -0x112(%rbp),%edx
    6101:	0f b6 85 0b ff ff ff 	movzbl -0xf5(%rbp),%eax
    6108:	38 c2                	cmp    %al,%dl
    610a:	0f 86 ac 70 01 00    	jbe    1d1bc <main+0x1c962>
    6110:	0f b6 95 ee fe ff ff 	movzbl -0x112(%rbp),%edx
    6117:	0f b6 85 0c ff ff ff 	movzbl -0xf4(%rbp),%eax
    611e:	38 c2                	cmp    %al,%dl
    6120:	0f 86 9c 70 01 00    	jbe    1d1c2 <main+0x1c968>
    6126:	0f b6 95 ee fe ff ff 	movzbl -0x112(%rbp),%edx
    612d:	0f b6 85 0d ff ff ff 	movzbl -0xf3(%rbp),%eax
    6134:	38 c2                	cmp    %al,%dl
    6136:	0f 86 8c 70 01 00    	jbe    1d1c8 <main+0x1c96e>
    613c:	0f b6 95 ee fe ff ff 	movzbl -0x112(%rbp),%edx
    6143:	0f b6 85 0e ff ff ff 	movzbl -0xf2(%rbp),%eax
    614a:	38 c2                	cmp    %al,%dl
    614c:	0f 86 7c 70 01 00    	jbe    1d1ce <main+0x1c974>
    6152:	0f b6 95 ee fe ff ff 	movzbl -0x112(%rbp),%edx
    6159:	0f b6 85 10 ff ff ff 	movzbl -0xf0(%rbp),%eax
    6160:	38 c2                	cmp    %al,%dl
    6162:	0f 86 6c 70 01 00    	jbe    1d1d4 <main+0x1c97a>
    6168:	0f b6 95 ee fe ff ff 	movzbl -0x112(%rbp),%edx
    616f:	0f b6 85 11 ff ff ff 	movzbl -0xef(%rbp),%eax
    6176:	38 c2                	cmp    %al,%dl
    6178:	0f 86 5c 70 01 00    	jbe    1d1da <main+0x1c980>
    617e:	0f b6 95 ee fe ff ff 	movzbl -0x112(%rbp),%edx
    6185:	0f b6 85 12 ff ff ff 	movzbl -0xee(%rbp),%eax
    618c:	38 c2                	cmp    %al,%dl
    618e:	0f 86 4c 70 01 00    	jbe    1d1e0 <main+0x1c986>
    6194:	0f b6 95 ee fe ff ff 	movzbl -0x112(%rbp),%edx
    619b:	0f b6 85 13 ff ff ff 	movzbl -0xed(%rbp),%eax
    61a2:	38 c2                	cmp    %al,%dl
    61a4:	0f 86 3c 70 01 00    	jbe    1d1e6 <main+0x1c98c>
    61aa:	0f b6 95 ee fe ff ff 	movzbl -0x112(%rbp),%edx
    61b1:	0f b6 85 14 ff ff ff 	movzbl -0xec(%rbp),%eax
    61b8:	38 c2                	cmp    %al,%dl
    61ba:	0f 86 2c 70 01 00    	jbe    1d1ec <main+0x1c992>
    61c0:	0f b6 95 ee fe ff ff 	movzbl -0x112(%rbp),%edx
    61c7:	0f b6 85 15 ff ff ff 	movzbl -0xeb(%rbp),%eax
    61ce:	38 c2                	cmp    %al,%dl
    61d0:	0f 83 1c 70 01 00    	jae    1d1f2 <main+0x1c998>
    61d6:	0f b6 95 ee fe ff ff 	movzbl -0x112(%rbp),%edx
    61dd:	0f b6 85 16 ff ff ff 	movzbl -0xea(%rbp),%eax
    61e4:	38 c2                	cmp    %al,%dl
    61e6:	0f 83 0c 70 01 00    	jae    1d1f8 <main+0x1c99e>
    61ec:	0f b6 95 ee fe ff ff 	movzbl -0x112(%rbp),%edx
    61f3:	0f b6 85 17 ff ff ff 	movzbl -0xe9(%rbp),%eax
    61fa:	38 c2                	cmp    %al,%dl
    61fc:	0f 86 fc 6f 01 00    	jbe    1d1fe <main+0x1c9a4>
    6202:	0f b6 95 ee fe ff ff 	movzbl -0x112(%rbp),%edx
    6209:	0f b6 85 18 ff ff ff 	movzbl -0xe8(%rbp),%eax
    6210:	38 c2                	cmp    %al,%dl
    6212:	0f 86 ec 6f 01 00    	jbe    1d204 <main+0x1c9aa>
    6218:	0f b6 95 ee fe ff ff 	movzbl -0x112(%rbp),%edx
    621f:	0f b6 85 19 ff ff ff 	movzbl -0xe7(%rbp),%eax
    6226:	38 c2                	cmp    %al,%dl
    6228:	0f 83 dc 6f 01 00    	jae    1d20a <main+0x1c9b0>
    622e:	0f b6 95 ee fe ff ff 	movzbl -0x112(%rbp),%edx
    6235:	0f b6 85 1a ff ff ff 	movzbl -0xe6(%rbp),%eax
    623c:	38 c2                	cmp    %al,%dl
    623e:	0f 83 cc 6f 01 00    	jae    1d210 <main+0x1c9b6>
    6244:	0f b6 95 ee fe ff ff 	movzbl -0x112(%rbp),%edx
    624b:	0f b6 85 1b ff ff ff 	movzbl -0xe5(%rbp),%eax
    6252:	38 c2                	cmp    %al,%dl
    6254:	0f 86 bc 6f 01 00    	jbe    1d216 <main+0x1c9bc>
    625a:	0f b6 95 ee fe ff ff 	movzbl -0x112(%rbp),%edx
    6261:	0f b6 85 1c ff ff ff 	movzbl -0xe4(%rbp),%eax
    6268:	38 c2                	cmp    %al,%dl
    626a:	0f 86 ac 6f 01 00    	jbe    1d21c <main+0x1c9c2>
    6270:	0f b6 95 ee fe ff ff 	movzbl -0x112(%rbp),%edx
    6277:	0f b6 85 1d ff ff ff 	movzbl -0xe3(%rbp),%eax
    627e:	38 c2                	cmp    %al,%dl
    6280:	0f 86 9c 6f 01 00    	jbe    1d222 <main+0x1c9c8>
    6286:	0f b6 95 ee fe ff ff 	movzbl -0x112(%rbp),%edx
    628d:	0f b6 85 1e ff ff ff 	movzbl -0xe2(%rbp),%eax
    6294:	38 c2                	cmp    %al,%dl
    6296:	0f 83 8c 6f 01 00    	jae    1d228 <main+0x1c9ce>
    629c:	0f b6 95 ee fe ff ff 	movzbl -0x112(%rbp),%edx
    62a3:	0f b6 85 1f ff ff ff 	movzbl -0xe1(%rbp),%eax
    62aa:	38 c2                	cmp    %al,%dl
    62ac:	0f 86 7c 6f 01 00    	jbe    1d22e <main+0x1c9d4>
    62b2:	0f b6 95 ee fe ff ff 	movzbl -0x112(%rbp),%edx
    62b9:	0f b6 85 20 ff ff ff 	movzbl -0xe0(%rbp),%eax
    62c0:	38 c2                	cmp    %al,%dl
    62c2:	0f 86 6c 6f 01 00    	jbe    1d234 <main+0x1c9da>
    62c8:	0f b6 95 ee fe ff ff 	movzbl -0x112(%rbp),%edx
    62cf:	0f b6 85 21 ff ff ff 	movzbl -0xdf(%rbp),%eax
    62d6:	38 c2                	cmp    %al,%dl
    62d8:	0f 86 5c 6f 01 00    	jbe    1d23a <main+0x1c9e0>
    62de:	0f b6 95 ee fe ff ff 	movzbl -0x112(%rbp),%edx
    62e5:	0f b6 85 22 ff ff ff 	movzbl -0xde(%rbp),%eax
    62ec:	38 c2                	cmp    %al,%dl
    62ee:	0f 86 4c 6f 01 00    	jbe    1d240 <main+0x1c9e6>
    62f4:	0f b6 95 ee fe ff ff 	movzbl -0x112(%rbp),%edx
    62fb:	0f b6 85 23 ff ff ff 	movzbl -0xdd(%rbp),%eax
    6302:	38 c2                	cmp    %al,%dl
    6304:	0f 86 3c 6f 01 00    	jbe    1d246 <main+0x1c9ec>
    630a:	0f b6 95 ee fe ff ff 	movzbl -0x112(%rbp),%edx
    6311:	0f b6 85 24 ff ff ff 	movzbl -0xdc(%rbp),%eax
    6318:	38 c2                	cmp    %al,%dl
    631a:	0f 83 2c 6f 01 00    	jae    1d24c <main+0x1c9f2>
    6320:	0f b6 95 ee fe ff ff 	movzbl -0x112(%rbp),%edx
    6327:	0f b6 85 25 ff ff ff 	movzbl -0xdb(%rbp),%eax
    632e:	38 c2                	cmp    %al,%dl
    6330:	0f 83 1c 6f 01 00    	jae    1d252 <main+0x1c9f8>
    6336:	0f b6 95 ee fe ff ff 	movzbl -0x112(%rbp),%edx
    633d:	0f b6 85 26 ff ff ff 	movzbl -0xda(%rbp),%eax
    6344:	38 c2                	cmp    %al,%dl
    6346:	0f 86 0c 6f 01 00    	jbe    1d258 <main+0x1c9fe>
    634c:	0f b6 95 ee fe ff ff 	movzbl -0x112(%rbp),%edx
    6353:	0f b6 85 27 ff ff ff 	movzbl -0xd9(%rbp),%eax
    635a:	38 c2                	cmp    %al,%dl
    635c:	0f 83 fc 6e 01 00    	jae    1d25e <main+0x1ca04>
    6362:	0f b6 95 ee fe ff ff 	movzbl -0x112(%rbp),%edx
    6369:	0f b6 85 28 ff ff ff 	movzbl -0xd8(%rbp),%eax
    6370:	38 c2                	cmp    %al,%dl
    6372:	0f 83 ec 6e 01 00    	jae    1d264 <main+0x1ca0a>
    6378:	0f b6 95 ef fe ff ff 	movzbl -0x111(%rbp),%edx
    637f:	0f b6 85 e0 fe ff ff 	movzbl -0x120(%rbp),%eax
    6386:	38 c2                	cmp    %al,%dl
    6388:	0f 86 dc 6e 01 00    	jbe    1d26a <main+0x1ca10>
    638e:	0f b6 95 ef fe ff ff 	movzbl -0x111(%rbp),%edx
    6395:	0f b6 85 e1 fe ff ff 	movzbl -0x11f(%rbp),%eax
    639c:	38 c2                	cmp    %al,%dl
    639e:	0f 86 cc 6e 01 00    	jbe    1d270 <main+0x1ca16>
    63a4:	0f b6 95 ef fe ff ff 	movzbl -0x111(%rbp),%edx
    63ab:	0f b6 85 e2 fe ff ff 	movzbl -0x11e(%rbp),%eax
    63b2:	38 c2                	cmp    %al,%dl
    63b4:	0f 86 bc 6e 01 00    	jbe    1d276 <main+0x1ca1c>
    63ba:	0f b6 95 ef fe ff ff 	movzbl -0x111(%rbp),%edx
    63c1:	0f b6 85 e3 fe ff ff 	movzbl -0x11d(%rbp),%eax
    63c8:	38 c2                	cmp    %al,%dl
    63ca:	0f 86 ac 6e 01 00    	jbe    1d27c <main+0x1ca22>
    63d0:	0f b6 95 ef fe ff ff 	movzbl -0x111(%rbp),%edx
    63d7:	0f b6 85 e4 fe ff ff 	movzbl -0x11c(%rbp),%eax
    63de:	38 c2                	cmp    %al,%dl
    63e0:	0f 83 9c 6e 01 00    	jae    1d282 <main+0x1ca28>
    63e6:	0f b6 95 ef fe ff ff 	movzbl -0x111(%rbp),%edx
    63ed:	0f b6 85 e5 fe ff ff 	movzbl -0x11b(%rbp),%eax
    63f4:	38 c2                	cmp    %al,%dl
    63f6:	0f 83 8c 6e 01 00    	jae    1d288 <main+0x1ca2e>
    63fc:	0f b6 95 ef fe ff ff 	movzbl -0x111(%rbp),%edx
    6403:	0f b6 85 e6 fe ff ff 	movzbl -0x11a(%rbp),%eax
    640a:	38 c2                	cmp    %al,%dl
    640c:	0f 86 7c 6e 01 00    	jbe    1d28e <main+0x1ca34>
    6412:	0f b6 95 ef fe ff ff 	movzbl -0x111(%rbp),%edx
    6419:	0f b6 85 e7 fe ff ff 	movzbl -0x119(%rbp),%eax
    6420:	38 c2                	cmp    %al,%dl
    6422:	0f 86 6c 6e 01 00    	jbe    1d294 <main+0x1ca3a>
    6428:	0f b6 95 ef fe ff ff 	movzbl -0x111(%rbp),%edx
    642f:	0f b6 85 e8 fe ff ff 	movzbl -0x118(%rbp),%eax
    6436:	38 c2                	cmp    %al,%dl
    6438:	0f 83 5c 6e 01 00    	jae    1d29a <main+0x1ca40>
    643e:	0f b6 95 ef fe ff ff 	movzbl -0x111(%rbp),%edx
    6445:	0f b6 85 e9 fe ff ff 	movzbl -0x117(%rbp),%eax
    644c:	38 c2                	cmp    %al,%dl
    644e:	0f 83 4c 6e 01 00    	jae    1d2a0 <main+0x1ca46>
    6454:	0f b6 95 ef fe ff ff 	movzbl -0x111(%rbp),%edx
    645b:	0f b6 85 ea fe ff ff 	movzbl -0x116(%rbp),%eax
    6462:	38 c2                	cmp    %al,%dl
    6464:	0f 86 3c 6e 01 00    	jbe    1d2a6 <main+0x1ca4c>
    646a:	0f b6 95 ef fe ff ff 	movzbl -0x111(%rbp),%edx
    6471:	0f b6 85 eb fe ff ff 	movzbl -0x115(%rbp),%eax
    6478:	38 c2                	cmp    %al,%dl
    647a:	0f 86 2c 6e 01 00    	jbe    1d2ac <main+0x1ca52>
    6480:	0f b6 95 ef fe ff ff 	movzbl -0x111(%rbp),%edx
    6487:	0f b6 85 ec fe ff ff 	movzbl -0x114(%rbp),%eax
    648e:	38 c2                	cmp    %al,%dl
    6490:	0f 86 1c 6e 01 00    	jbe    1d2b2 <main+0x1ca58>
    6496:	0f b6 95 ef fe ff ff 	movzbl -0x111(%rbp),%edx
    649d:	0f b6 85 ed fe ff ff 	movzbl -0x113(%rbp),%eax
    64a4:	38 c2                	cmp    %al,%dl
    64a6:	0f 86 0c 6e 01 00    	jbe    1d2b8 <main+0x1ca5e>
    64ac:	0f b6 95 ef fe ff ff 	movzbl -0x111(%rbp),%edx
    64b3:	0f b6 85 ee fe ff ff 	movzbl -0x112(%rbp),%eax
    64ba:	38 c2                	cmp    %al,%dl
    64bc:	0f 83 fc 6d 01 00    	jae    1d2be <main+0x1ca64>
    64c2:	0f b6 95 ef fe ff ff 	movzbl -0x111(%rbp),%edx
    64c9:	0f b6 85 f0 fe ff ff 	movzbl -0x110(%rbp),%eax
    64d0:	38 c2                	cmp    %al,%dl
    64d2:	0f 83 ec 6d 01 00    	jae    1d2c4 <main+0x1ca6a>
    64d8:	0f b6 95 ef fe ff ff 	movzbl -0x111(%rbp),%edx
    64df:	0f b6 85 f1 fe ff ff 	movzbl -0x10f(%rbp),%eax
    64e6:	38 c2                	cmp    %al,%dl
    64e8:	0f 86 dc 6d 01 00    	jbe    1d2ca <main+0x1ca70>
    64ee:	0f b6 95 ef fe ff ff 	movzbl -0x111(%rbp),%edx
    64f5:	0f b6 85 f2 fe ff ff 	movzbl -0x10e(%rbp),%eax
    64fc:	38 c2                	cmp    %al,%dl
    64fe:	0f 86 cc 6d 01 00    	jbe    1d2d0 <main+0x1ca76>
    6504:	0f b6 95 ef fe ff ff 	movzbl -0x111(%rbp),%edx
    650b:	0f b6 85 f4 fe ff ff 	movzbl -0x10c(%rbp),%eax
    6512:	38 c2                	cmp    %al,%dl
    6514:	0f 83 bc 6d 01 00    	jae    1d2d6 <main+0x1ca7c>
    651a:	0f b6 95 ef fe ff ff 	movzbl -0x111(%rbp),%edx
    6521:	0f b6 85 f5 fe ff ff 	movzbl -0x10b(%rbp),%eax
    6528:	38 c2                	cmp    %al,%dl
    652a:	0f 86 ac 6d 01 00    	jbe    1d2dc <main+0x1ca82>
    6530:	0f b6 95 ef fe ff ff 	movzbl -0x111(%rbp),%edx
    6537:	0f b6 85 f6 fe ff ff 	movzbl -0x10a(%rbp),%eax
    653e:	38 c2                	cmp    %al,%dl
    6540:	0f 83 9c 6d 01 00    	jae    1d2e2 <main+0x1ca88>
    6546:	0f b6 95 ef fe ff ff 	movzbl -0x111(%rbp),%edx
    654d:	0f b6 85 f7 fe ff ff 	movzbl -0x109(%rbp),%eax
    6554:	38 c2                	cmp    %al,%dl
    6556:	0f 86 8c 6d 01 00    	jbe    1d2e8 <main+0x1ca8e>
    655c:	0f b6 95 ef fe ff ff 	movzbl -0x111(%rbp),%edx
    6563:	0f b6 85 f8 fe ff ff 	movzbl -0x108(%rbp),%eax
    656a:	38 c2                	cmp    %al,%dl
    656c:	0f 83 7c 6d 01 00    	jae    1d2ee <main+0x1ca94>
    6572:	0f b6 95 ef fe ff ff 	movzbl -0x111(%rbp),%edx
    6579:	0f b6 85 f9 fe ff ff 	movzbl -0x107(%rbp),%eax
    6580:	38 c2                	cmp    %al,%dl
    6582:	0f 86 6c 6d 01 00    	jbe    1d2f4 <main+0x1ca9a>
    6588:	0f b6 95 ef fe ff ff 	movzbl -0x111(%rbp),%edx
    658f:	0f b6 85 fa fe ff ff 	movzbl -0x106(%rbp),%eax
    6596:	38 c2                	cmp    %al,%dl
    6598:	0f 86 5c 6d 01 00    	jbe    1d2fa <main+0x1caa0>
    659e:	0f b6 95 ef fe ff ff 	movzbl -0x111(%rbp),%edx
    65a5:	0f b6 85 fc fe ff ff 	movzbl -0x104(%rbp),%eax
    65ac:	38 c2                	cmp    %al,%dl
    65ae:	0f 83 4c 6d 01 00    	jae    1d300 <main+0x1caa6>
    65b4:	0f b6 95 ef fe ff ff 	movzbl -0x111(%rbp),%edx
    65bb:	0f b6 85 fd fe ff ff 	movzbl -0x103(%rbp),%eax
    65c2:	38 c2                	cmp    %al,%dl
    65c4:	0f 86 3c 6d 01 00    	jbe    1d306 <main+0x1caac>
    65ca:	0f b6 95 ef fe ff ff 	movzbl -0x111(%rbp),%edx
    65d1:	0f b6 85 fe fe ff ff 	movzbl -0x102(%rbp),%eax
    65d8:	38 c2                	cmp    %al,%dl
    65da:	0f 83 2c 6d 01 00    	jae    1d30c <main+0x1cab2>
    65e0:	0f b6 95 ef fe ff ff 	movzbl -0x111(%rbp),%edx
    65e7:	0f b6 85 ff fe ff ff 	movzbl -0x101(%rbp),%eax
    65ee:	38 c2                	cmp    %al,%dl
    65f0:	0f 83 1c 6d 01 00    	jae    1d312 <main+0x1cab8>
    65f6:	0f b6 95 ef fe ff ff 	movzbl -0x111(%rbp),%edx
    65fd:	0f b6 85 00 ff ff ff 	movzbl -0x100(%rbp),%eax
    6604:	38 c2                	cmp    %al,%dl
    6606:	0f 86 0c 6d 01 00    	jbe    1d318 <main+0x1cabe>
    660c:	0f b6 95 ef fe ff ff 	movzbl -0x111(%rbp),%edx
    6613:	0f b6 85 01 ff ff ff 	movzbl -0xff(%rbp),%eax
    661a:	38 c2                	cmp    %al,%dl
    661c:	0f 86 fc 6c 01 00    	jbe    1d31e <main+0x1cac4>
    6622:	0f b6 95 ef fe ff ff 	movzbl -0x111(%rbp),%edx
    6629:	0f b6 85 02 ff ff ff 	movzbl -0xfe(%rbp),%eax
    6630:	38 c2                	cmp    %al,%dl
    6632:	0f 86 ec 6c 01 00    	jbe    1d324 <main+0x1caca>
    6638:	0f b6 95 ef fe ff ff 	movzbl -0x111(%rbp),%edx
    663f:	0f b6 85 03 ff ff ff 	movzbl -0xfd(%rbp),%eax
    6646:	38 c2                	cmp    %al,%dl
    6648:	0f 86 dc 6c 01 00    	jbe    1d32a <main+0x1cad0>
    664e:	0f b6 95 ef fe ff ff 	movzbl -0x111(%rbp),%edx
    6655:	0f b6 85 04 ff ff ff 	movzbl -0xfc(%rbp),%eax
    665c:	38 c2                	cmp    %al,%dl
    665e:	0f 83 cc 6c 01 00    	jae    1d330 <main+0x1cad6>
    6664:	0f b6 95 ef fe ff ff 	movzbl -0x111(%rbp),%edx
    666b:	0f b6 85 05 ff ff ff 	movzbl -0xfb(%rbp),%eax
    6672:	38 c2                	cmp    %al,%dl
    6674:	0f 83 bc 6c 01 00    	jae    1d336 <main+0x1cadc>
    667a:	0f b6 95 ef fe ff ff 	movzbl -0x111(%rbp),%edx
    6681:	0f b6 85 06 ff ff ff 	movzbl -0xfa(%rbp),%eax
    6688:	38 c2                	cmp    %al,%dl
    668a:	0f 86 ac 6c 01 00    	jbe    1d33c <main+0x1cae2>
    6690:	0f b6 95 ef fe ff ff 	movzbl -0x111(%rbp),%edx
    6697:	0f b6 85 08 ff ff ff 	movzbl -0xf8(%rbp),%eax
    669e:	38 c2                	cmp    %al,%dl
    66a0:	0f 86 9c 6c 01 00    	jbe    1d342 <main+0x1cae8>
    66a6:	0f b6 95 ef fe ff ff 	movzbl -0x111(%rbp),%edx
    66ad:	0f b6 85 09 ff ff ff 	movzbl -0xf7(%rbp),%eax
    66b4:	38 c2                	cmp    %al,%dl
    66b6:	0f 86 8c 6c 01 00    	jbe    1d348 <main+0x1caee>
    66bc:	0f b6 95 ef fe ff ff 	movzbl -0x111(%rbp),%edx
    66c3:	0f b6 85 0a ff ff ff 	movzbl -0xf6(%rbp),%eax
    66ca:	38 c2                	cmp    %al,%dl
    66cc:	0f 86 7c 6c 01 00    	jbe    1d34e <main+0x1caf4>
    66d2:	0f b6 95 ef fe ff ff 	movzbl -0x111(%rbp),%edx
    66d9:	0f b6 85 0b ff ff ff 	movzbl -0xf5(%rbp),%eax
    66e0:	38 c2                	cmp    %al,%dl
    66e2:	0f 86 6c 6c 01 00    	jbe    1d354 <main+0x1cafa>
    66e8:	0f b6 95 ef fe ff ff 	movzbl -0x111(%rbp),%edx
    66ef:	0f b6 85 0c ff ff ff 	movzbl -0xf4(%rbp),%eax
    66f6:	38 c2                	cmp    %al,%dl
    66f8:	0f 86 5c 6c 01 00    	jbe    1d35a <main+0x1cb00>
    66fe:	0f b6 95 ef fe ff ff 	movzbl -0x111(%rbp),%edx
    6705:	0f b6 85 0d ff ff ff 	movzbl -0xf3(%rbp),%eax
    670c:	38 c2                	cmp    %al,%dl
    670e:	0f 86 4c 6c 01 00    	jbe    1d360 <main+0x1cb06>
    6714:	0f b6 95 ef fe ff ff 	movzbl -0x111(%rbp),%edx
    671b:	0f b6 85 0e ff ff ff 	movzbl -0xf2(%rbp),%eax
    6722:	38 c2                	cmp    %al,%dl
    6724:	0f 86 3c 6c 01 00    	jbe    1d366 <main+0x1cb0c>
    672a:	0f b6 95 ef fe ff ff 	movzbl -0x111(%rbp),%edx
    6731:	0f b6 85 0f ff ff ff 	movzbl -0xf1(%rbp),%eax
    6738:	38 c2                	cmp    %al,%dl
    673a:	0f 83 2c 6c 01 00    	jae    1d36c <main+0x1cb12>
    6740:	0f b6 95 ef fe ff ff 	movzbl -0x111(%rbp),%edx
    6747:	0f b6 85 10 ff ff ff 	movzbl -0xf0(%rbp),%eax
    674e:	38 c2                	cmp    %al,%dl
    6750:	0f 86 1c 6c 01 00    	jbe    1d372 <main+0x1cb18>
    6756:	0f b6 95 ef fe ff ff 	movzbl -0x111(%rbp),%edx
    675d:	0f b6 85 11 ff ff ff 	movzbl -0xef(%rbp),%eax
    6764:	38 c2                	cmp    %al,%dl
    6766:	0f 86 0c 6c 01 00    	jbe    1d378 <main+0x1cb1e>
    676c:	0f b6 95 ef fe ff ff 	movzbl -0x111(%rbp),%edx
    6773:	0f b6 85 12 ff ff ff 	movzbl -0xee(%rbp),%eax
    677a:	38 c2                	cmp    %al,%dl
    677c:	0f 86 fc 6b 01 00    	jbe    1d37e <main+0x1cb24>
    6782:	0f b6 95 ef fe ff ff 	movzbl -0x111(%rbp),%edx
    6789:	0f b6 85 13 ff ff ff 	movzbl -0xed(%rbp),%eax
    6790:	38 c2                	cmp    %al,%dl
    6792:	0f 86 ec 6b 01 00    	jbe    1d384 <main+0x1cb2a>
    6798:	0f b6 95 ef fe ff ff 	movzbl -0x111(%rbp),%edx
    679f:	0f b6 85 15 ff ff ff 	movzbl -0xeb(%rbp),%eax
    67a6:	38 c2                	cmp    %al,%dl
    67a8:	0f 83 dc 6b 01 00    	jae    1d38a <main+0x1cb30>
    67ae:	0f b6 95 ef fe ff ff 	movzbl -0x111(%rbp),%edx
    67b5:	0f b6 85 16 ff ff ff 	movzbl -0xea(%rbp),%eax
    67bc:	38 c2                	cmp    %al,%dl
    67be:	0f 83 cc 6b 01 00    	jae    1d390 <main+0x1cb36>
    67c4:	0f b6 95 ef fe ff ff 	movzbl -0x111(%rbp),%edx
    67cb:	0f b6 85 18 ff ff ff 	movzbl -0xe8(%rbp),%eax
    67d2:	38 c2                	cmp    %al,%dl
    67d4:	0f 86 bc 6b 01 00    	jbe    1d396 <main+0x1cb3c>
    67da:	0f b6 95 ef fe ff ff 	movzbl -0x111(%rbp),%edx
    67e1:	0f b6 85 19 ff ff ff 	movzbl -0xe7(%rbp),%eax
    67e8:	38 c2                	cmp    %al,%dl
    67ea:	0f 83 ac 6b 01 00    	jae    1d39c <main+0x1cb42>
    67f0:	0f b6 95 ef fe ff ff 	movzbl -0x111(%rbp),%edx
    67f7:	0f b6 85 1a ff ff ff 	movzbl -0xe6(%rbp),%eax
    67fe:	38 c2                	cmp    %al,%dl
    6800:	0f 83 9c 6b 01 00    	jae    1d3a2 <main+0x1cb48>
    6806:	0f b6 95 ef fe ff ff 	movzbl -0x111(%rbp),%edx
    680d:	0f b6 85 1c ff ff ff 	movzbl -0xe4(%rbp),%eax
    6814:	38 c2                	cmp    %al,%dl
    6816:	0f 86 8c 6b 01 00    	jbe    1d3a8 <main+0x1cb4e>
    681c:	0f b6 95 ef fe ff ff 	movzbl -0x111(%rbp),%edx
    6823:	0f b6 85 1d ff ff ff 	movzbl -0xe3(%rbp),%eax
    682a:	38 c2                	cmp    %al,%dl
    682c:	0f 86 7c 6b 01 00    	jbe    1d3ae <main+0x1cb54>
    6832:	0f b6 95 ef fe ff ff 	movzbl -0x111(%rbp),%edx
    6839:	0f b6 85 1e ff ff ff 	movzbl -0xe2(%rbp),%eax
    6840:	38 c2                	cmp    %al,%dl
    6842:	0f 83 6c 6b 01 00    	jae    1d3b4 <main+0x1cb5a>
    6848:	0f b6 95 ef fe ff ff 	movzbl -0x111(%rbp),%edx
    684f:	0f b6 85 1f ff ff ff 	movzbl -0xe1(%rbp),%eax
    6856:	38 c2                	cmp    %al,%dl
    6858:	0f 86 5c 6b 01 00    	jbe    1d3ba <main+0x1cb60>
    685e:	0f b6 95 ef fe ff ff 	movzbl -0x111(%rbp),%edx
    6865:	0f b6 85 20 ff ff ff 	movzbl -0xe0(%rbp),%eax
    686c:	38 c2                	cmp    %al,%dl
    686e:	0f 86 4c 6b 01 00    	jbe    1d3c0 <main+0x1cb66>
    6874:	0f b6 95 ef fe ff ff 	movzbl -0x111(%rbp),%edx
    687b:	0f b6 85 21 ff ff ff 	movzbl -0xdf(%rbp),%eax
    6882:	38 c2                	cmp    %al,%dl
    6884:	0f 86 3c 6b 01 00    	jbe    1d3c6 <main+0x1cb6c>
    688a:	0f b6 95 ef fe ff ff 	movzbl -0x111(%rbp),%edx
    6891:	0f b6 85 22 ff ff ff 	movzbl -0xde(%rbp),%eax
    6898:	38 c2                	cmp    %al,%dl
    689a:	0f 86 2c 6b 01 00    	jbe    1d3cc <main+0x1cb72>
    68a0:	0f b6 95 ef fe ff ff 	movzbl -0x111(%rbp),%edx
    68a7:	0f b6 85 23 ff ff ff 	movzbl -0xdd(%rbp),%eax
    68ae:	38 c2                	cmp    %al,%dl
    68b0:	0f 86 1c 6b 01 00    	jbe    1d3d2 <main+0x1cb78>
    68b6:	0f b6 95 ef fe ff ff 	movzbl -0x111(%rbp),%edx
    68bd:	0f b6 85 24 ff ff ff 	movzbl -0xdc(%rbp),%eax
    68c4:	38 c2                	cmp    %al,%dl
    68c6:	0f 83 0c 6b 01 00    	jae    1d3d8 <main+0x1cb7e>
    68cc:	0f b6 95 ef fe ff ff 	movzbl -0x111(%rbp),%edx
    68d3:	0f b6 85 25 ff ff ff 	movzbl -0xdb(%rbp),%eax
    68da:	38 c2                	cmp    %al,%dl
    68dc:	0f 83 fc 6a 01 00    	jae    1d3de <main+0x1cb84>
    68e2:	0f b6 95 ef fe ff ff 	movzbl -0x111(%rbp),%edx
    68e9:	0f b6 85 26 ff ff ff 	movzbl -0xda(%rbp),%eax
    68f0:	38 c2                	cmp    %al,%dl
    68f2:	0f 86 ec 6a 01 00    	jbe    1d3e4 <main+0x1cb8a>
    68f8:	0f b6 95 ef fe ff ff 	movzbl -0x111(%rbp),%edx
    68ff:	0f b6 85 27 ff ff ff 	movzbl -0xd9(%rbp),%eax
    6906:	38 c2                	cmp    %al,%dl
    6908:	0f 83 dc 6a 01 00    	jae    1d3ea <main+0x1cb90>
    690e:	0f b6 95 ef fe ff ff 	movzbl -0x111(%rbp),%edx
    6915:	0f b6 85 28 ff ff ff 	movzbl -0xd8(%rbp),%eax
    691c:	38 c2                	cmp    %al,%dl
    691e:	0f 83 cc 6a 01 00    	jae    1d3f0 <main+0x1cb96>
    6924:	0f b6 95 f0 fe ff ff 	movzbl -0x110(%rbp),%edx
    692b:	0f b6 85 e0 fe ff ff 	movzbl -0x120(%rbp),%eax
    6932:	38 c2                	cmp    %al,%dl
    6934:	0f 86 bc 6a 01 00    	jbe    1d3f6 <main+0x1cb9c>
    693a:	0f b6 95 f0 fe ff ff 	movzbl -0x110(%rbp),%edx
    6941:	0f b6 85 e1 fe ff ff 	movzbl -0x11f(%rbp),%eax
    6948:	38 c2                	cmp    %al,%dl
    694a:	0f 86 ac 6a 01 00    	jbe    1d3fc <main+0x1cba2>
    6950:	0f b6 95 f0 fe ff ff 	movzbl -0x110(%rbp),%edx
    6957:	0f b6 85 e2 fe ff ff 	movzbl -0x11e(%rbp),%eax
    695e:	38 c2                	cmp    %al,%dl
    6960:	0f 86 9c 6a 01 00    	jbe    1d402 <main+0x1cba8>
    6966:	0f b6 95 f0 fe ff ff 	movzbl -0x110(%rbp),%edx
    696d:	0f b6 85 e3 fe ff ff 	movzbl -0x11d(%rbp),%eax
    6974:	38 c2                	cmp    %al,%dl
    6976:	0f 86 8c 6a 01 00    	jbe    1d408 <main+0x1cbae>
    697c:	0f b6 95 f0 fe ff ff 	movzbl -0x110(%rbp),%edx
    6983:	0f b6 85 e4 fe ff ff 	movzbl -0x11c(%rbp),%eax
    698a:	38 c2                	cmp    %al,%dl
    698c:	0f 83 7c 6a 01 00    	jae    1d40e <main+0x1cbb4>
    6992:	0f b6 95 f0 fe ff ff 	movzbl -0x110(%rbp),%edx
    6999:	0f b6 85 e5 fe ff ff 	movzbl -0x11b(%rbp),%eax
    69a0:	38 c2                	cmp    %al,%dl
    69a2:	0f 86 6c 6a 01 00    	jbe    1d414 <main+0x1cbba>
    69a8:	0f b6 95 f0 fe ff ff 	movzbl -0x110(%rbp),%edx
    69af:	0f b6 85 e6 fe ff ff 	movzbl -0x11a(%rbp),%eax
    69b6:	38 c2                	cmp    %al,%dl
    69b8:	0f 86 5c 6a 01 00    	jbe    1d41a <main+0x1cbc0>
    69be:	0f b6 95 f0 fe ff ff 	movzbl -0x110(%rbp),%edx
    69c5:	0f b6 85 e7 fe ff ff 	movzbl -0x119(%rbp),%eax
    69cc:	38 c2                	cmp    %al,%dl
    69ce:	0f 86 4c 6a 01 00    	jbe    1d420 <main+0x1cbc6>
    69d4:	0f b6 95 f0 fe ff ff 	movzbl -0x110(%rbp),%edx
    69db:	0f b6 85 e8 fe ff ff 	movzbl -0x118(%rbp),%eax
    69e2:	38 c2                	cmp    %al,%dl
    69e4:	0f 86 3c 6a 01 00    	jbe    1d426 <main+0x1cbcc>
    69ea:	0f b6 95 f0 fe ff ff 	movzbl -0x110(%rbp),%edx
    69f1:	0f b6 85 e9 fe ff ff 	movzbl -0x117(%rbp),%eax
    69f8:	38 c2                	cmp    %al,%dl
    69fa:	0f 86 2c 6a 01 00    	jbe    1d42c <main+0x1cbd2>
    6a00:	0f b6 95 f0 fe ff ff 	movzbl -0x110(%rbp),%edx
    6a07:	0f b6 85 ea fe ff ff 	movzbl -0x116(%rbp),%eax
    6a0e:	38 c2                	cmp    %al,%dl
    6a10:	0f 86 1c 6a 01 00    	jbe    1d432 <main+0x1cbd8>
    6a16:	0f b6 95 f0 fe ff ff 	movzbl -0x110(%rbp),%edx
    6a1d:	0f b6 85 eb fe ff ff 	movzbl -0x115(%rbp),%eax
    6a24:	38 c2                	cmp    %al,%dl
    6a26:	0f 86 0c 6a 01 00    	jbe    1d438 <main+0x1cbde>
    6a2c:	0f b6 95 f0 fe ff ff 	movzbl -0x110(%rbp),%edx
    6a33:	0f b6 85 ec fe ff ff 	movzbl -0x114(%rbp),%eax
    6a3a:	38 c2                	cmp    %al,%dl
    6a3c:	0f 86 fc 69 01 00    	jbe    1d43e <main+0x1cbe4>
    6a42:	0f b6 95 f0 fe ff ff 	movzbl -0x110(%rbp),%edx
    6a49:	0f b6 85 ed fe ff ff 	movzbl -0x113(%rbp),%eax
    6a50:	38 c2                	cmp    %al,%dl
    6a52:	0f 86 ec 69 01 00    	jbe    1d444 <main+0x1cbea>
    6a58:	0f b6 95 f0 fe ff ff 	movzbl -0x110(%rbp),%edx
    6a5f:	0f b6 85 ee fe ff ff 	movzbl -0x112(%rbp),%eax
    6a66:	38 c2                	cmp    %al,%dl
    6a68:	0f 86 dc 69 01 00    	jbe    1d44a <main+0x1cbf0>
    6a6e:	0f b6 95 f0 fe ff ff 	movzbl -0x110(%rbp),%edx
    6a75:	0f b6 85 ef fe ff ff 	movzbl -0x111(%rbp),%eax
    6a7c:	38 c2                	cmp    %al,%dl
    6a7e:	0f 86 cc 69 01 00    	jbe    1d450 <main+0x1cbf6>
    6a84:	0f b6 95 f0 fe ff ff 	movzbl -0x110(%rbp),%edx
    6a8b:	0f b6 85 f1 fe ff ff 	movzbl -0x10f(%rbp),%eax
    6a92:	38 c2                	cmp    %al,%dl
    6a94:	0f 86 bc 69 01 00    	jbe    1d456 <main+0x1cbfc>
